

Microchip Technology PIC18 LITE Macro Assembler V2.00 build -1524193055 
                                                                                               Mon Sep 10 20:15:08 2018

Microchip Technology Omniscient Code Generator v2.00 (Free mode) build 20180527130849
     1  0000                     
     2                           ; Version 2.00
     3                           ; Generated 27/05/2018 GMT
     4                           
     5                           ; 
     6                           ; Copyright © 2018, Microchip Technology Inc. and its subsidiaries ("Microchip")
     7                           ; All rights reserved.
     8                           ; 
     9                           ; This software is developed by Microchip Technology Inc. and its subsidiaries ("Microch
                                 ip").
    10                           ; 
    11                           ; Redistribution and use in source and binary forms, with or without modification, are
    12                           ; permitted provided that the following conditions are met:
    13                           ; 
    14                           ;     1. Redistributions of source code must retain the above copyright notice, this lis
                                 t of
    15                           ;        conditions and the following disclaimer.
    16                           ; 
    17                           ;     2. Redistributions in binary form must reproduce the above copyright notice, this 
                                 list
    18                           ;        of conditions and the following disclaimer in the documentation and/or other
    19                           ;        materials provided with the distribution.
    20                           ; 
    21                           ;     3. Microchip's name may not be used to endorse or promote products derived from th
                                 is
    22                           ;        software without specific prior written permission.
    23                           ; 
    24                           ; THIS SOFTWARE IS PROVIDED BY MICROCHIP "AS IS" AND ANY EXPRESS OR IMPLIED WARRANTIES,

    25                           ; INCLUDING, BUT NOT LIMITED TO, THE IMPLIED WARRANTIES OF MERCHANTABILITY AND FITNESS F
                                 OR
    26                           ; PURPOSE ARE DISCLAIMED.  IN NO EVENT SHALL MICROCHIP BE LIABLE FOR ANY DIRECT, INDIREC
                                 T,
    27                           ; INCIDENTAL, SPECIAL, EXEMPLARY, OR CONSEQUENTIAL DAMAGES (INCLUDING BUT NOT LIMITED TO
                                 
    28                           ; PROCUREMENT OF SUBSTITUTE GOODS OR SERVICES; LOSS OF USE, DATA OR PROFITS; OR BUSINESS
                                 
    29                           ; INTERRUPTION) HOWSOEVER CAUSED AND ON ANY THEORY OF LIABILITY, WHETHER IN CONTRACT, ST
                                 RICT
    30                           ; LIABILITY, OR TORT (INCLUDING NEGLIGENCE OR OTHERWISE) ARISING IN ANY WAY OUT OF THE U
                                 SE OF
    31                           ; THIS SOFTWARE, EVEN IF ADVISED OF THE POSSIBILITY OF SUCH DAMAGE.
    32                           ; 
    33                           
    34                           
    35                           ; 
    36                           ; Code-generator required, PIC18F2220 Definitions
    37                           ; 
    38  0000                     fsr0 equ 0FE9h
    39  0000                     fsr0h equ 0FEAh
    40  0000                     fsr0l equ 0FE9h
    41  0000                     fsr1 equ 0FE1h
    42  0000                     fsr1h equ 0FE2h
    43  0000                     fsr1l equ 0FE1h
    44  0000                     fsr2 equ 0FD9h
    45  0000                     fsr2h equ 0FDAh
    46  0000                     fsr2l equ 0FD9h
    47  0000                     indf0 equ 0FEFh
    48  0000                     indf1 equ 0FE7h
    49  0000                     indf2 equ 0FDFh
    50  0000                     intcon equ 0FF2h
    51  0000                     nvmcon equ 00h
    52  0000                     pcl equ 0FF9h
    53  0000                     pclath equ 0FFAh
    54  0000                     pclatu equ 0FFBh
    55  0000                     plusw0 equ 0FEBh
    56  0000                     plusw1 equ 0FE3h
    57  0000                     plusw2 equ 0FDBh
    58  0000                     postdec0 equ 0FEDh
    59  0000                     postdec1 equ 0FE5h
    60  0000                     postdec2 equ 0FDDh
    61  0000                     postinc0 equ 0FEEh
    62  0000                     postinc1 equ 0FE6h
    63  0000                     postinc2 equ 0FDEh
    64  0000                     preinc0 equ 0FECh
    65  0000                     preinc1 equ 0FE4h
    66  0000                     preinc2 equ 0FDCh
    67  0000                     prod equ 0FF3h
    68  0000                     prodh equ 0FF4h
    69  0000                     prodl equ 0FF3h
    70  0000                     status equ 0FD8h
    71  0000                     tablat equ 0FF5h
    72  0000                     tblptr equ 0FF6h
    73  0000                     tblptrh equ 0FF7h
    74  0000                     tblptrl equ 0FF6h
    75  0000                     tblptru equ 0FF8h
    76  0000                     tosl equ 0FFDh
    77  0000                     wreg equ 0FE8h
    78  0000                     
     2                           opt pagewidth 120
     3  0000                     byte0	macro	val
     4                           	(getbyte(val,0))
     5                           endm
     6  0000                     byte1	macro	val
     7                           	(getbyte(val,1))
     8                           endm
     9  0000                     byte2	macro	val
    10                           	(getbyte(val,2))
    11                           endm
    12  0000                     byte3	macro	val
    13                           	(getbyte(val,3))
    14                           endm
    15  0000                     byte4	macro	val
    16                           	(getbyte(val,4))
    17                           endm
    18  0000                     byte5	macro	val
    19                           	(getbyte(val,5))
    20                           endm
    21  0000                     byte6	macro	val
    22                           	(getbyte(val,6))
    23                           endm
    24  0000                     byte7	macro	val
    25                           	(getbyte(val,7))
    26                           endm
    27  0000                     getword	macro	val,pos
    28                           	(((val) >> (8 * pos)) and 0xffff)
    29                           endm
    30  0000                     word0	macro	val
    31                           	(getword(val,0))
    32                           endm
    33  0000                     word1	macro	val
    34                           	(getword(val,2))
    35                           endm
    36  0000                     word2	macro	val
    37                           	(getword(val,4))
    38                           endm
    39  0000                     word3	macro	val
    40                           	(getword(val,6))
    41                           endm
    42  0000                     gettword	macro	val,pos
    43                           	(((val) >> (8 * pos)) and 0xffffff)
    44                           endm
    45  0000                     tword0	macro	val
    46                           	(gettword(val,0))
    47                           endm
    48  0000                     tword1	macro	val
    49                           	(gettword(val,3))
    50                           endm
    51  0000                     tword2	macro	val
    52                           	(gettword(val,6))
    53                           endm
    54  0000                     getdword	macro	val,pos
    55                           	(((val) >> (8 * pos)) and 0xffffffff)
    56                           endm
    57  0000                     dword0	macro	val
    58                           	(getdword(val,0))
    59                           endm
    60  0000                     dword1	macro	val
    61                           	(getdword(val,4))
    62                           endm
    63  0000                     clrc   macro
    64                           	bcf	status,0
    65                           endm
    66  0000                     setc   macro
    67                           	bsf	status,0
    68                           endm
    69  0000                     clrz   macro
    70                           	bcf	status,2
    71                           endm
    72  0000                     setz   macro
    73                           	bsf	status,2
    74                           endm
    75  0000                     skipnz macro
    76                           	btfsc	status,2
    77                           endm
    78  0000                     skipz  macro
    79                           	btfss	status,2
    80                           endm
    81  0000                     skipnc macro
    82                           	btfsc	status,0
    83                           endm
    84  0000                     skipc  macro
    85                           	btfss	status,0
    86                           endm
    87  0000                     pushw macro
    88                           	movwf postinc1
    89                           endm
    90  0000                     pushf macro arg1
    91                           	movff arg1, postinc1
    92                           endm
    93  0000                     popw macro
    94                           	movf postdec1,f
    95                           	movf indf1,w
    96                           endm
    97  0000                     popf macro arg1
    98                           	movf postdec1,f
    99                           	movff indf1,arg1
   100                           endm
   101  0000                     popfc macro arg1
   102                           	movff plusw1,arg1
   103                           	decfsz fsr1,f
   104                           endm
   105  0000                     	global	__ramtop
   106                           	global	__accesstop
   107                           # 54 "C:\Program Files (x86)\Microchip\xc8\v2.00\pic\include\pic18f2220.h"
   108                           PORTA equ 0F80h ;# 
   109  0000                     # 264 "C:\Program Files (x86)\Microchip\xc8\v2.00\pic\include\pic18f2220.h"
   110                           PORTB equ 0F81h ;# 
   111  0000                     # 444 "C:\Program Files (x86)\Microchip\xc8\v2.00\pic\include\pic18f2220.h"
   112                           PORTC equ 0F82h ;# 
   113  0000                     # 624 "C:\Program Files (x86)\Microchip\xc8\v2.00\pic\include\pic18f2220.h"
   114                           LATA equ 0F89h ;# 
   115  0000                     # 736 "C:\Program Files (x86)\Microchip\xc8\v2.00\pic\include\pic18f2220.h"
   116                           LATB equ 0F8Ah ;# 
   117  0000                     # 848 "C:\Program Files (x86)\Microchip\xc8\v2.00\pic\include\pic18f2220.h"
   118                           LATC equ 0F8Bh ;# 
   119  0000                     # 960 "C:\Program Files (x86)\Microchip\xc8\v2.00\pic\include\pic18f2220.h"
   120                           TRISA equ 0F92h ;# 
   121  0000                     # 965 "C:\Program Files (x86)\Microchip\xc8\v2.00\pic\include\pic18f2220.h"
   122                           DDRA equ 0F92h ;# 
   123  0000                     # 1182 "C:\Program Files (x86)\Microchip\xc8\v2.00\pic\include\pic18f2220.h"
   124                           TRISB equ 0F93h ;# 
   125  0000                     # 1187 "C:\Program Files (x86)\Microchip\xc8\v2.00\pic\include\pic18f2220.h"
   126                           DDRB equ 0F93h ;# 
   127  0000                     # 1404 "C:\Program Files (x86)\Microchip\xc8\v2.00\pic\include\pic18f2220.h"
   128                           TRISC equ 0F94h ;# 
   129  0000                     # 1409 "C:\Program Files (x86)\Microchip\xc8\v2.00\pic\include\pic18f2220.h"
   130                           DDRC equ 0F94h ;# 
   131  0000                     # 1626 "C:\Program Files (x86)\Microchip\xc8\v2.00\pic\include\pic18f2220.h"
   132                           OSCTUN2 equ 0F9Ah ;# 
   133  0000                     # 1691 "C:\Program Files (x86)\Microchip\xc8\v2.00\pic\include\pic18f2220.h"
   134                           OSCTUNE equ 0F9Bh ;# 
   135  0000                     # 1749 "C:\Program Files (x86)\Microchip\xc8\v2.00\pic\include\pic18f2220.h"
   136                           PIE1 equ 0F9Dh ;# 
   137  0000                     # 1820 "C:\Program Files (x86)\Microchip\xc8\v2.00\pic\include\pic18f2220.h"
   138                           PIR1 equ 0F9Eh ;# 
   139  0000                     # 1891 "C:\Program Files (x86)\Microchip\xc8\v2.00\pic\include\pic18f2220.h"
   140                           IPR1 equ 0F9Fh ;# 
   141  0000                     # 1962 "C:\Program Files (x86)\Microchip\xc8\v2.00\pic\include\pic18f2220.h"
   142                           PIE2 equ 0FA0h ;# 
   143  0000                     # 2019 "C:\Program Files (x86)\Microchip\xc8\v2.00\pic\include\pic18f2220.h"
   144                           PIR2 equ 0FA1h ;# 
   145  0000                     # 2076 "C:\Program Files (x86)\Microchip\xc8\v2.00\pic\include\pic18f2220.h"
   146                           IPR2 equ 0FA2h ;# 
   147  0000                     # 2133 "C:\Program Files (x86)\Microchip\xc8\v2.00\pic\include\pic18f2220.h"
   148                           EECON1 equ 0FA6h ;# 
   149  0000                     # 2199 "C:\Program Files (x86)\Microchip\xc8\v2.00\pic\include\pic18f2220.h"
   150                           EECON2 equ 0FA7h ;# 
   151  0000                     # 2206 "C:\Program Files (x86)\Microchip\xc8\v2.00\pic\include\pic18f2220.h"
   152                           EEDATA equ 0FA8h ;# 
   153  0000                     # 2213 "C:\Program Files (x86)\Microchip\xc8\v2.00\pic\include\pic18f2220.h"
   154                           EEADR equ 0FA9h ;# 
   155  0000                     # 2220 "C:\Program Files (x86)\Microchip\xc8\v2.00\pic\include\pic18f2220.h"
   156                           RCSTA equ 0FABh ;# 
   157  0000                     # 2225 "C:\Program Files (x86)\Microchip\xc8\v2.00\pic\include\pic18f2220.h"
   158                           RCSTA1 equ 0FABh ;# 
   159  0000                     # 2430 "C:\Program Files (x86)\Microchip\xc8\v2.00\pic\include\pic18f2220.h"
   160                           TXSTA equ 0FACh ;# 
   161  0000                     # 2435 "C:\Program Files (x86)\Microchip\xc8\v2.00\pic\include\pic18f2220.h"
   162                           TXSTA1 equ 0FACh ;# 
   163  0000                     # 2666 "C:\Program Files (x86)\Microchip\xc8\v2.00\pic\include\pic18f2220.h"
   164                           TXREG equ 0FADh ;# 
   165  0000                     # 2671 "C:\Program Files (x86)\Microchip\xc8\v2.00\pic\include\pic18f2220.h"
   166                           TXREG1 equ 0FADh ;# 
   167  0000                     # 2678 "C:\Program Files (x86)\Microchip\xc8\v2.00\pic\include\pic18f2220.h"
   168                           RCREG equ 0FAEh ;# 
   169  0000                     # 2683 "C:\Program Files (x86)\Microchip\xc8\v2.00\pic\include\pic18f2220.h"
   170                           RCREG1 equ 0FAEh ;# 
   171  0000                     # 2690 "C:\Program Files (x86)\Microchip\xc8\v2.00\pic\include\pic18f2220.h"
   172                           SPBRG equ 0FAFh ;# 
   173  0000                     # 2695 "C:\Program Files (x86)\Microchip\xc8\v2.00\pic\include\pic18f2220.h"
   174                           SPBRG1 equ 0FAFh ;# 
   175  0000                     # 2702 "C:\Program Files (x86)\Microchip\xc8\v2.00\pic\include\pic18f2220.h"
   176                           T3CON equ 0FB1h ;# 
   177  0000                     # 2814 "C:\Program Files (x86)\Microchip\xc8\v2.00\pic\include\pic18f2220.h"
   178                           TMR3 equ 0FB2h ;# 
   179  0000                     # 2821 "C:\Program Files (x86)\Microchip\xc8\v2.00\pic\include\pic18f2220.h"
   180                           TMR3L equ 0FB2h ;# 
   181  0000                     # 2828 "C:\Program Files (x86)\Microchip\xc8\v2.00\pic\include\pic18f2220.h"
   182                           TMR3H equ 0FB3h ;# 
   183  0000                     # 2835 "C:\Program Files (x86)\Microchip\xc8\v2.00\pic\include\pic18f2220.h"
   184                           CMCON equ 0FB4h ;# 
   185  0000                     # 2925 "C:\Program Files (x86)\Microchip\xc8\v2.00\pic\include\pic18f2220.h"
   186                           CVRCON equ 0FB5h ;# 
   187  0000                     # 2999 "C:\Program Files (x86)\Microchip\xc8\v2.00\pic\include\pic18f2220.h"
   188                           CCP2CON equ 0FBAh ;# 
   189  0000                     # 3093 "C:\Program Files (x86)\Microchip\xc8\v2.00\pic\include\pic18f2220.h"
   190                           CCPR2 equ 0FBBh ;# 
   191  0000                     # 3100 "C:\Program Files (x86)\Microchip\xc8\v2.00\pic\include\pic18f2220.h"
   192                           CCPR2L equ 0FBBh ;# 
   193  0000                     # 3107 "C:\Program Files (x86)\Microchip\xc8\v2.00\pic\include\pic18f2220.h"
   194                           CCPR2H equ 0FBCh ;# 
   195  0000                     # 3114 "C:\Program Files (x86)\Microchip\xc8\v2.00\pic\include\pic18f2220.h"
   196                           CCP1CON equ 0FBDh ;# 
   197  0000                     # 3208 "C:\Program Files (x86)\Microchip\xc8\v2.00\pic\include\pic18f2220.h"
   198                           CCPR1 equ 0FBEh ;# 
   199  0000                     # 3215 "C:\Program Files (x86)\Microchip\xc8\v2.00\pic\include\pic18f2220.h"
   200                           CCPR1L equ 0FBEh ;# 
   201  0000                     # 3222 "C:\Program Files (x86)\Microchip\xc8\v2.00\pic\include\pic18f2220.h"
   202                           CCPR1H equ 0FBFh ;# 
   203  0000                     # 3229 "C:\Program Files (x86)\Microchip\xc8\v2.00\pic\include\pic18f2220.h"
   204                           ADCON2 equ 0FC0h ;# 
   205  0000                     # 3300 "C:\Program Files (x86)\Microchip\xc8\v2.00\pic\include\pic18f2220.h"
   206                           ADCON1 equ 0FC1h ;# 
   207  0000                     # 3385 "C:\Program Files (x86)\Microchip\xc8\v2.00\pic\include\pic18f2220.h"
   208                           ADCON0 equ 0FC2h ;# 
   209  0000                     # 3504 "C:\Program Files (x86)\Microchip\xc8\v2.00\pic\include\pic18f2220.h"
   210                           ADRES equ 0FC3h ;# 
   211  0000                     # 3511 "C:\Program Files (x86)\Microchip\xc8\v2.00\pic\include\pic18f2220.h"
   212                           ADRESL equ 0FC3h ;# 
   213  0000                     # 3518 "C:\Program Files (x86)\Microchip\xc8\v2.00\pic\include\pic18f2220.h"
   214                           ADRESH equ 0FC4h ;# 
   215  0000                     # 3525 "C:\Program Files (x86)\Microchip\xc8\v2.00\pic\include\pic18f2220.h"
   216                           SSPCON2 equ 0FC5h ;# 
   217  0000                     # 3587 "C:\Program Files (x86)\Microchip\xc8\v2.00\pic\include\pic18f2220.h"
   218                           SSPCON1 equ 0FC6h ;# 
   219  0000                     # 3657 "C:\Program Files (x86)\Microchip\xc8\v2.00\pic\include\pic18f2220.h"
   220                           SSPSTAT equ 0FC7h ;# 
   221  0000                     # 3914 "C:\Program Files (x86)\Microchip\xc8\v2.00\pic\include\pic18f2220.h"
   222                           SSPADD equ 0FC8h ;# 
   223  0000                     # 3921 "C:\Program Files (x86)\Microchip\xc8\v2.00\pic\include\pic18f2220.h"
   224                           SSPBUF equ 0FC9h ;# 
   225  0000                     # 3928 "C:\Program Files (x86)\Microchip\xc8\v2.00\pic\include\pic18f2220.h"
   226                           T2CON equ 0FCAh ;# 
   227  0000                     # 3999 "C:\Program Files (x86)\Microchip\xc8\v2.00\pic\include\pic18f2220.h"
   228                           PR2 equ 0FCBh ;# 
   229  0000                     # 4004 "C:\Program Files (x86)\Microchip\xc8\v2.00\pic\include\pic18f2220.h"
   230                           MEMCON equ 0FCBh ;# 
   231  0000                     # 4109 "C:\Program Files (x86)\Microchip\xc8\v2.00\pic\include\pic18f2220.h"
   232                           TMR2 equ 0FCCh ;# 
   233  0000                     # 4116 "C:\Program Files (x86)\Microchip\xc8\v2.00\pic\include\pic18f2220.h"
   234                           T1CON equ 0FCDh ;# 
   235  0000                     # 4219 "C:\Program Files (x86)\Microchip\xc8\v2.00\pic\include\pic18f2220.h"
   236                           TMR1 equ 0FCEh ;# 
   237  0000                     # 4226 "C:\Program Files (x86)\Microchip\xc8\v2.00\pic\include\pic18f2220.h"
   238                           TMR1L equ 0FCEh ;# 
   239  0000                     # 4233 "C:\Program Files (x86)\Microchip\xc8\v2.00\pic\include\pic18f2220.h"
   240                           TMR1H equ 0FCFh ;# 
   241  0000                     # 4240 "C:\Program Files (x86)\Microchip\xc8\v2.00\pic\include\pic18f2220.h"
   242                           RCON equ 0FD0h ;# 
   243  0000                     # 4367 "C:\Program Files (x86)\Microchip\xc8\v2.00\pic\include\pic18f2220.h"
   244                           WDTCON equ 0FD1h ;# 
   245  0000                     # 4395 "C:\Program Files (x86)\Microchip\xc8\v2.00\pic\include\pic18f2220.h"
   246                           LVDCON equ 0FD2h ;# 
   247  0000                     # 4460 "C:\Program Files (x86)\Microchip\xc8\v2.00\pic\include\pic18f2220.h"
   248                           OSCCON equ 0FD3h ;# 
   249  0000                     # 4544 "C:\Program Files (x86)\Microchip\xc8\v2.00\pic\include\pic18f2220.h"
   250                           T0CON equ 0FD5h ;# 
   251  0000                     # 4627 "C:\Program Files (x86)\Microchip\xc8\v2.00\pic\include\pic18f2220.h"
   252                           TMR0 equ 0FD6h ;# 
   253  0000                     # 4634 "C:\Program Files (x86)\Microchip\xc8\v2.00\pic\include\pic18f2220.h"
   254                           TMR0L equ 0FD6h ;# 
   255  0000                     # 4641 "C:\Program Files (x86)\Microchip\xc8\v2.00\pic\include\pic18f2220.h"
   256                           TMR0H equ 0FD7h ;# 
   257  0000                     # 4648 "C:\Program Files (x86)\Microchip\xc8\v2.00\pic\include\pic18f2220.h"
   258                           STATUS equ 0FD8h ;# 
   259  0000                     # 4719 "C:\Program Files (x86)\Microchip\xc8\v2.00\pic\include\pic18f2220.h"
   260                           FSR2 equ 0FD9h ;# 
   261  0000                     # 4726 "C:\Program Files (x86)\Microchip\xc8\v2.00\pic\include\pic18f2220.h"
   262                           FSR2L equ 0FD9h ;# 
   263  0000                     # 4733 "C:\Program Files (x86)\Microchip\xc8\v2.00\pic\include\pic18f2220.h"
   264                           FSR2H equ 0FDAh ;# 
   265  0000                     # 4740 "C:\Program Files (x86)\Microchip\xc8\v2.00\pic\include\pic18f2220.h"
   266                           PLUSW2 equ 0FDBh ;# 
   267  0000                     # 4747 "C:\Program Files (x86)\Microchip\xc8\v2.00\pic\include\pic18f2220.h"
   268                           PREINC2 equ 0FDCh ;# 
   269  0000                     # 4754 "C:\Program Files (x86)\Microchip\xc8\v2.00\pic\include\pic18f2220.h"
   270                           POSTDEC2 equ 0FDDh ;# 
   271  0000                     # 4761 "C:\Program Files (x86)\Microchip\xc8\v2.00\pic\include\pic18f2220.h"
   272                           POSTINC2 equ 0FDEh ;# 
   273  0000                     # 4768 "C:\Program Files (x86)\Microchip\xc8\v2.00\pic\include\pic18f2220.h"
   274                           INDF2 equ 0FDFh ;# 
   275  0000                     # 4775 "C:\Program Files (x86)\Microchip\xc8\v2.00\pic\include\pic18f2220.h"
   276                           BSR equ 0FE0h ;# 
   277  0000                     # 4782 "C:\Program Files (x86)\Microchip\xc8\v2.00\pic\include\pic18f2220.h"
   278                           FSR1 equ 0FE1h ;# 
   279  0000                     # 4789 "C:\Program Files (x86)\Microchip\xc8\v2.00\pic\include\pic18f2220.h"
   280                           FSR1L equ 0FE1h ;# 
   281  0000                     # 4796 "C:\Program Files (x86)\Microchip\xc8\v2.00\pic\include\pic18f2220.h"
   282                           FSR1H equ 0FE2h ;# 
   283  0000                     # 4803 "C:\Program Files (x86)\Microchip\xc8\v2.00\pic\include\pic18f2220.h"
   284                           PLUSW1 equ 0FE3h ;# 
   285  0000                     # 4810 "C:\Program Files (x86)\Microchip\xc8\v2.00\pic\include\pic18f2220.h"
   286                           PREINC1 equ 0FE4h ;# 
   287  0000                     # 4817 "C:\Program Files (x86)\Microchip\xc8\v2.00\pic\include\pic18f2220.h"
   288                           POSTDEC1 equ 0FE5h ;# 
   289  0000                     # 4824 "C:\Program Files (x86)\Microchip\xc8\v2.00\pic\include\pic18f2220.h"
   290                           POSTINC1 equ 0FE6h ;# 
   291  0000                     # 4831 "C:\Program Files (x86)\Microchip\xc8\v2.00\pic\include\pic18f2220.h"
   292                           INDF1 equ 0FE7h ;# 
   293  0000                     # 4838 "C:\Program Files (x86)\Microchip\xc8\v2.00\pic\include\pic18f2220.h"
   294                           WREG equ 0FE8h ;# 
   295  0000                     # 4850 "C:\Program Files (x86)\Microchip\xc8\v2.00\pic\include\pic18f2220.h"
   296                           FSR0 equ 0FE9h ;# 
   297  0000                     # 4857 "C:\Program Files (x86)\Microchip\xc8\v2.00\pic\include\pic18f2220.h"
   298                           FSR0L equ 0FE9h ;# 
   299  0000                     # 4864 "C:\Program Files (x86)\Microchip\xc8\v2.00\pic\include\pic18f2220.h"
   300                           FSR0H equ 0FEAh ;# 
   301  0000                     # 4871 "C:\Program Files (x86)\Microchip\xc8\v2.00\pic\include\pic18f2220.h"
   302                           PLUSW0 equ 0FEBh ;# 
   303  0000                     # 4878 "C:\Program Files (x86)\Microchip\xc8\v2.00\pic\include\pic18f2220.h"
   304                           PREINC0 equ 0FECh ;# 
   305  0000                     # 4885 "C:\Program Files (x86)\Microchip\xc8\v2.00\pic\include\pic18f2220.h"
   306                           POSTDEC0 equ 0FEDh ;# 
   307  0000                     # 4892 "C:\Program Files (x86)\Microchip\xc8\v2.00\pic\include\pic18f2220.h"
   308                           POSTINC0 equ 0FEEh ;# 
   309  0000                     # 4899 "C:\Program Files (x86)\Microchip\xc8\v2.00\pic\include\pic18f2220.h"
   310                           INDF0 equ 0FEFh ;# 
   311  0000                     # 4906 "C:\Program Files (x86)\Microchip\xc8\v2.00\pic\include\pic18f2220.h"
   312                           INTCON3 equ 0FF0h ;# 
   313  0000                     # 4998 "C:\Program Files (x86)\Microchip\xc8\v2.00\pic\include\pic18f2220.h"
   314                           INTCON2 equ 0FF1h ;# 
   315  0000                     # 5075 "C:\Program Files (x86)\Microchip\xc8\v2.00\pic\include\pic18f2220.h"
   316                           INTCON equ 0FF2h ;# 
   317  0000                     # 5206 "C:\Program Files (x86)\Microchip\xc8\v2.00\pic\include\pic18f2220.h"
   318                           PROD equ 0FF3h ;# 
   319  0000                     # 5213 "C:\Program Files (x86)\Microchip\xc8\v2.00\pic\include\pic18f2220.h"
   320                           PRODL equ 0FF3h ;# 
   321  0000                     # 5220 "C:\Program Files (x86)\Microchip\xc8\v2.00\pic\include\pic18f2220.h"
   322                           PRODH equ 0FF4h ;# 
   323  0000                     # 5227 "C:\Program Files (x86)\Microchip\xc8\v2.00\pic\include\pic18f2220.h"
   324                           TABLAT equ 0FF5h ;# 
   325  0000                     # 5236 "C:\Program Files (x86)\Microchip\xc8\v2.00\pic\include\pic18f2220.h"
   326                           TBLPTR equ 0FF6h ;# 
   327  0000                     # 5243 "C:\Program Files (x86)\Microchip\xc8\v2.00\pic\include\pic18f2220.h"
   328                           TBLPTRL equ 0FF6h ;# 
   329  0000                     # 5250 "C:\Program Files (x86)\Microchip\xc8\v2.00\pic\include\pic18f2220.h"
   330                           TBLPTRH equ 0FF7h ;# 
   331  0000                     # 5257 "C:\Program Files (x86)\Microchip\xc8\v2.00\pic\include\pic18f2220.h"
   332                           TBLPTRU equ 0FF8h ;# 
   333  0000                     # 5266 "C:\Program Files (x86)\Microchip\xc8\v2.00\pic\include\pic18f2220.h"
   334                           PCLAT equ 0FF9h ;# 
   335  0000                     # 5273 "C:\Program Files (x86)\Microchip\xc8\v2.00\pic\include\pic18f2220.h"
   336                           PC equ 0FF9h ;# 
   337  0000                     # 5280 "C:\Program Files (x86)\Microchip\xc8\v2.00\pic\include\pic18f2220.h"
   338                           PCL equ 0FF9h ;# 
   339  0000                     # 5287 "C:\Program Files (x86)\Microchip\xc8\v2.00\pic\include\pic18f2220.h"
   340                           PCLATH equ 0FFAh ;# 
   341  0000                     # 5294 "C:\Program Files (x86)\Microchip\xc8\v2.00\pic\include\pic18f2220.h"
   342                           PCLATU equ 0FFBh ;# 
   343  0000                     # 5301 "C:\Program Files (x86)\Microchip\xc8\v2.00\pic\include\pic18f2220.h"
   344                           STKPTR equ 0FFCh ;# 
   345  0000                     # 5407 "C:\Program Files (x86)\Microchip\xc8\v2.00\pic\include\pic18f2220.h"
   346                           TOS equ 0FFDh ;# 
   347  0000                     # 5414 "C:\Program Files (x86)\Microchip\xc8\v2.00\pic\include\pic18f2220.h"
   348                           TOSL equ 0FFDh ;# 
   349  0000                     # 5421 "C:\Program Files (x86)\Microchip\xc8\v2.00\pic\include\pic18f2220.h"
   350                           TOSH equ 0FFEh ;# 
   351  0000                     # 5428 "C:\Program Files (x86)\Microchip\xc8\v2.00\pic\include\pic18f2220.h"
   352                           TOSU equ 0FFFh ;# 
   353  0000                     # 54 "C:\Program Files (x86)\Microchip\xc8\v2.00\pic\include\pic18f2220.h"
   354                           PORTA equ 0F80h ;# 
   355  0000                     # 264 "C:\Program Files (x86)\Microchip\xc8\v2.00\pic\include\pic18f2220.h"
   356                           PORTB equ 0F81h ;# 
   357  0000                     # 444 "C:\Program Files (x86)\Microchip\xc8\v2.00\pic\include\pic18f2220.h"
   358                           PORTC equ 0F82h ;# 
   359  0000                     # 624 "C:\Program Files (x86)\Microchip\xc8\v2.00\pic\include\pic18f2220.h"
   360                           LATA equ 0F89h ;# 
   361  0000                     # 736 "C:\Program Files (x86)\Microchip\xc8\v2.00\pic\include\pic18f2220.h"
   362                           LATB equ 0F8Ah ;# 
   363  0000                     # 848 "C:\Program Files (x86)\Microchip\xc8\v2.00\pic\include\pic18f2220.h"
   364                           LATC equ 0F8Bh ;# 
   365  0000                     # 960 "C:\Program Files (x86)\Microchip\xc8\v2.00\pic\include\pic18f2220.h"
   366                           TRISA equ 0F92h ;# 
   367  0000                     # 965 "C:\Program Files (x86)\Microchip\xc8\v2.00\pic\include\pic18f2220.h"
   368                           DDRA equ 0F92h ;# 
   369  0000                     # 1182 "C:\Program Files (x86)\Microchip\xc8\v2.00\pic\include\pic18f2220.h"
   370                           TRISB equ 0F93h ;# 
   371  0000                     # 1187 "C:\Program Files (x86)\Microchip\xc8\v2.00\pic\include\pic18f2220.h"
   372                           DDRB equ 0F93h ;# 
   373  0000                     # 1404 "C:\Program Files (x86)\Microchip\xc8\v2.00\pic\include\pic18f2220.h"
   374                           TRISC equ 0F94h ;# 
   375  0000                     # 1409 "C:\Program Files (x86)\Microchip\xc8\v2.00\pic\include\pic18f2220.h"
   376                           DDRC equ 0F94h ;# 
   377  0000                     # 1626 "C:\Program Files (x86)\Microchip\xc8\v2.00\pic\include\pic18f2220.h"
   378                           OSCTUN2 equ 0F9Ah ;# 
   379  0000                     # 1691 "C:\Program Files (x86)\Microchip\xc8\v2.00\pic\include\pic18f2220.h"
   380                           OSCTUNE equ 0F9Bh ;# 
   381  0000                     # 1749 "C:\Program Files (x86)\Microchip\xc8\v2.00\pic\include\pic18f2220.h"
   382                           PIE1 equ 0F9Dh ;# 
   383  0000                     # 1820 "C:\Program Files (x86)\Microchip\xc8\v2.00\pic\include\pic18f2220.h"
   384                           PIR1 equ 0F9Eh ;# 
   385  0000                     # 1891 "C:\Program Files (x86)\Microchip\xc8\v2.00\pic\include\pic18f2220.h"
   386                           IPR1 equ 0F9Fh ;# 
   387  0000                     # 1962 "C:\Program Files (x86)\Microchip\xc8\v2.00\pic\include\pic18f2220.h"
   388                           PIE2 equ 0FA0h ;# 
   389  0000                     # 2019 "C:\Program Files (x86)\Microchip\xc8\v2.00\pic\include\pic18f2220.h"
   390                           PIR2 equ 0FA1h ;# 
   391  0000                     # 2076 "C:\Program Files (x86)\Microchip\xc8\v2.00\pic\include\pic18f2220.h"
   392                           IPR2 equ 0FA2h ;# 
   393  0000                     # 2133 "C:\Program Files (x86)\Microchip\xc8\v2.00\pic\include\pic18f2220.h"
   394                           EECON1 equ 0FA6h ;# 
   395  0000                     # 2199 "C:\Program Files (x86)\Microchip\xc8\v2.00\pic\include\pic18f2220.h"
   396                           EECON2 equ 0FA7h ;# 
   397  0000                     # 2206 "C:\Program Files (x86)\Microchip\xc8\v2.00\pic\include\pic18f2220.h"
   398                           EEDATA equ 0FA8h ;# 
   399  0000                     # 2213 "C:\Program Files (x86)\Microchip\xc8\v2.00\pic\include\pic18f2220.h"
   400                           EEADR equ 0FA9h ;# 
   401  0000                     # 2220 "C:\Program Files (x86)\Microchip\xc8\v2.00\pic\include\pic18f2220.h"
   402                           RCSTA equ 0FABh ;# 
   403  0000                     # 2225 "C:\Program Files (x86)\Microchip\xc8\v2.00\pic\include\pic18f2220.h"
   404                           RCSTA1 equ 0FABh ;# 
   405  0000                     # 2430 "C:\Program Files (x86)\Microchip\xc8\v2.00\pic\include\pic18f2220.h"
   406                           TXSTA equ 0FACh ;# 
   407  0000                     # 2435 "C:\Program Files (x86)\Microchip\xc8\v2.00\pic\include\pic18f2220.h"
   408                           TXSTA1 equ 0FACh ;# 
   409  0000                     # 2666 "C:\Program Files (x86)\Microchip\xc8\v2.00\pic\include\pic18f2220.h"
   410                           TXREG equ 0FADh ;# 
   411  0000                     # 2671 "C:\Program Files (x86)\Microchip\xc8\v2.00\pic\include\pic18f2220.h"
   412                           TXREG1 equ 0FADh ;# 
   413  0000                     # 2678 "C:\Program Files (x86)\Microchip\xc8\v2.00\pic\include\pic18f2220.h"
   414                           RCREG equ 0FAEh ;# 
   415  0000                     # 2683 "C:\Program Files (x86)\Microchip\xc8\v2.00\pic\include\pic18f2220.h"
   416                           RCREG1 equ 0FAEh ;# 
   417  0000                     # 2690 "C:\Program Files (x86)\Microchip\xc8\v2.00\pic\include\pic18f2220.h"
   418                           SPBRG equ 0FAFh ;# 
   419  0000                     # 2695 "C:\Program Files (x86)\Microchip\xc8\v2.00\pic\include\pic18f2220.h"
   420                           SPBRG1 equ 0FAFh ;# 
   421  0000                     # 2702 "C:\Program Files (x86)\Microchip\xc8\v2.00\pic\include\pic18f2220.h"
   422                           T3CON equ 0FB1h ;# 
   423  0000                     # 2814 "C:\Program Files (x86)\Microchip\xc8\v2.00\pic\include\pic18f2220.h"
   424                           TMR3 equ 0FB2h ;# 
   425  0000                     # 2821 "C:\Program Files (x86)\Microchip\xc8\v2.00\pic\include\pic18f2220.h"
   426                           TMR3L equ 0FB2h ;# 
   427  0000                     # 2828 "C:\Program Files (x86)\Microchip\xc8\v2.00\pic\include\pic18f2220.h"
   428                           TMR3H equ 0FB3h ;# 
   429  0000                     # 2835 "C:\Program Files (x86)\Microchip\xc8\v2.00\pic\include\pic18f2220.h"
   430                           CMCON equ 0FB4h ;# 
   431  0000                     # 2925 "C:\Program Files (x86)\Microchip\xc8\v2.00\pic\include\pic18f2220.h"
   432                           CVRCON equ 0FB5h ;# 
   433  0000                     # 2999 "C:\Program Files (x86)\Microchip\xc8\v2.00\pic\include\pic18f2220.h"
   434                           CCP2CON equ 0FBAh ;# 
   435  0000                     # 3093 "C:\Program Files (x86)\Microchip\xc8\v2.00\pic\include\pic18f2220.h"
   436                           CCPR2 equ 0FBBh ;# 
   437  0000                     # 3100 "C:\Program Files (x86)\Microchip\xc8\v2.00\pic\include\pic18f2220.h"
   438                           CCPR2L equ 0FBBh ;# 
   439  0000                     # 3107 "C:\Program Files (x86)\Microchip\xc8\v2.00\pic\include\pic18f2220.h"
   440                           CCPR2H equ 0FBCh ;# 
   441  0000                     # 3114 "C:\Program Files (x86)\Microchip\xc8\v2.00\pic\include\pic18f2220.h"
   442                           CCP1CON equ 0FBDh ;# 
   443  0000                     # 3208 "C:\Program Files (x86)\Microchip\xc8\v2.00\pic\include\pic18f2220.h"
   444                           CCPR1 equ 0FBEh ;# 
   445  0000                     # 3215 "C:\Program Files (x86)\Microchip\xc8\v2.00\pic\include\pic18f2220.h"
   446                           CCPR1L equ 0FBEh ;# 
   447  0000                     # 3222 "C:\Program Files (x86)\Microchip\xc8\v2.00\pic\include\pic18f2220.h"
   448                           CCPR1H equ 0FBFh ;# 
   449  0000                     # 3229 "C:\Program Files (x86)\Microchip\xc8\v2.00\pic\include\pic18f2220.h"
   450                           ADCON2 equ 0FC0h ;# 
   451  0000                     # 3300 "C:\Program Files (x86)\Microchip\xc8\v2.00\pic\include\pic18f2220.h"
   452                           ADCON1 equ 0FC1h ;# 
   453  0000                     # 3385 "C:\Program Files (x86)\Microchip\xc8\v2.00\pic\include\pic18f2220.h"
   454                           ADCON0 equ 0FC2h ;# 
   455  0000                     # 3504 "C:\Program Files (x86)\Microchip\xc8\v2.00\pic\include\pic18f2220.h"
   456                           ADRES equ 0FC3h ;# 
   457  0000                     # 3511 "C:\Program Files (x86)\Microchip\xc8\v2.00\pic\include\pic18f2220.h"
   458                           ADRESL equ 0FC3h ;# 
   459  0000                     # 3518 "C:\Program Files (x86)\Microchip\xc8\v2.00\pic\include\pic18f2220.h"
   460                           ADRESH equ 0FC4h ;# 
   461  0000                     # 3525 "C:\Program Files (x86)\Microchip\xc8\v2.00\pic\include\pic18f2220.h"
   462                           SSPCON2 equ 0FC5h ;# 
   463  0000                     # 3587 "C:\Program Files (x86)\Microchip\xc8\v2.00\pic\include\pic18f2220.h"
   464                           SSPCON1 equ 0FC6h ;# 
   465  0000                     # 3657 "C:\Program Files (x86)\Microchip\xc8\v2.00\pic\include\pic18f2220.h"
   466                           SSPSTAT equ 0FC7h ;# 
   467  0000                     # 3914 "C:\Program Files (x86)\Microchip\xc8\v2.00\pic\include\pic18f2220.h"
   468                           SSPADD equ 0FC8h ;# 
   469  0000                     # 3921 "C:\Program Files (x86)\Microchip\xc8\v2.00\pic\include\pic18f2220.h"
   470                           SSPBUF equ 0FC9h ;# 
   471  0000                     # 3928 "C:\Program Files (x86)\Microchip\xc8\v2.00\pic\include\pic18f2220.h"
   472                           T2CON equ 0FCAh ;# 
   473  0000                     # 3999 "C:\Program Files (x86)\Microchip\xc8\v2.00\pic\include\pic18f2220.h"
   474                           PR2 equ 0FCBh ;# 
   475  0000                     # 4004 "C:\Program Files (x86)\Microchip\xc8\v2.00\pic\include\pic18f2220.h"
   476                           MEMCON equ 0FCBh ;# 
   477  0000                     # 4109 "C:\Program Files (x86)\Microchip\xc8\v2.00\pic\include\pic18f2220.h"
   478                           TMR2 equ 0FCCh ;# 
   479  0000                     # 4116 "C:\Program Files (x86)\Microchip\xc8\v2.00\pic\include\pic18f2220.h"
   480                           T1CON equ 0FCDh ;# 
   481  0000                     # 4219 "C:\Program Files (x86)\Microchip\xc8\v2.00\pic\include\pic18f2220.h"
   482                           TMR1 equ 0FCEh ;# 
   483  0000                     # 4226 "C:\Program Files (x86)\Microchip\xc8\v2.00\pic\include\pic18f2220.h"
   484                           TMR1L equ 0FCEh ;# 
   485  0000                     # 4233 "C:\Program Files (x86)\Microchip\xc8\v2.00\pic\include\pic18f2220.h"
   486                           TMR1H equ 0FCFh ;# 
   487  0000                     # 4240 "C:\Program Files (x86)\Microchip\xc8\v2.00\pic\include\pic18f2220.h"
   488                           RCON equ 0FD0h ;# 
   489  0000                     # 4367 "C:\Program Files (x86)\Microchip\xc8\v2.00\pic\include\pic18f2220.h"
   490                           WDTCON equ 0FD1h ;# 
   491  0000                     # 4395 "C:\Program Files (x86)\Microchip\xc8\v2.00\pic\include\pic18f2220.h"
   492                           LVDCON equ 0FD2h ;# 
   493  0000                     # 4460 "C:\Program Files (x86)\Microchip\xc8\v2.00\pic\include\pic18f2220.h"
   494                           OSCCON equ 0FD3h ;# 
   495  0000                     # 4544 "C:\Program Files (x86)\Microchip\xc8\v2.00\pic\include\pic18f2220.h"
   496                           T0CON equ 0FD5h ;# 
   497  0000                     # 4627 "C:\Program Files (x86)\Microchip\xc8\v2.00\pic\include\pic18f2220.h"
   498                           TMR0 equ 0FD6h ;# 
   499  0000                     # 4634 "C:\Program Files (x86)\Microchip\xc8\v2.00\pic\include\pic18f2220.h"
   500                           TMR0L equ 0FD6h ;# 
   501  0000                     # 4641 "C:\Program Files (x86)\Microchip\xc8\v2.00\pic\include\pic18f2220.h"
   502                           TMR0H equ 0FD7h ;# 
   503  0000                     # 4648 "C:\Program Files (x86)\Microchip\xc8\v2.00\pic\include\pic18f2220.h"
   504                           STATUS equ 0FD8h ;# 
   505  0000                     # 4719 "C:\Program Files (x86)\Microchip\xc8\v2.00\pic\include\pic18f2220.h"
   506                           FSR2 equ 0FD9h ;# 
   507  0000                     # 4726 "C:\Program Files (x86)\Microchip\xc8\v2.00\pic\include\pic18f2220.h"
   508                           FSR2L equ 0FD9h ;# 
   509  0000                     # 4733 "C:\Program Files (x86)\Microchip\xc8\v2.00\pic\include\pic18f2220.h"
   510                           FSR2H equ 0FDAh ;# 
   511  0000                     # 4740 "C:\Program Files (x86)\Microchip\xc8\v2.00\pic\include\pic18f2220.h"
   512                           PLUSW2 equ 0FDBh ;# 
   513  0000                     # 4747 "C:\Program Files (x86)\Microchip\xc8\v2.00\pic\include\pic18f2220.h"
   514                           PREINC2 equ 0FDCh ;# 
   515  0000                     # 4754 "C:\Program Files (x86)\Microchip\xc8\v2.00\pic\include\pic18f2220.h"
   516                           POSTDEC2 equ 0FDDh ;# 
   517  0000                     # 4761 "C:\Program Files (x86)\Microchip\xc8\v2.00\pic\include\pic18f2220.h"
   518                           POSTINC2 equ 0FDEh ;# 
   519  0000                     # 4768 "C:\Program Files (x86)\Microchip\xc8\v2.00\pic\include\pic18f2220.h"
   520                           INDF2 equ 0FDFh ;# 
   521  0000                     # 4775 "C:\Program Files (x86)\Microchip\xc8\v2.00\pic\include\pic18f2220.h"
   522                           BSR equ 0FE0h ;# 
   523  0000                     # 4782 "C:\Program Files (x86)\Microchip\xc8\v2.00\pic\include\pic18f2220.h"
   524                           FSR1 equ 0FE1h ;# 
   525  0000                     # 4789 "C:\Program Files (x86)\Microchip\xc8\v2.00\pic\include\pic18f2220.h"
   526                           FSR1L equ 0FE1h ;# 
   527  0000                     # 4796 "C:\Program Files (x86)\Microchip\xc8\v2.00\pic\include\pic18f2220.h"
   528                           FSR1H equ 0FE2h ;# 
   529  0000                     # 4803 "C:\Program Files (x86)\Microchip\xc8\v2.00\pic\include\pic18f2220.h"
   530                           PLUSW1 equ 0FE3h ;# 
   531  0000                     # 4810 "C:\Program Files (x86)\Microchip\xc8\v2.00\pic\include\pic18f2220.h"
   532                           PREINC1 equ 0FE4h ;# 
   533  0000                     # 4817 "C:\Program Files (x86)\Microchip\xc8\v2.00\pic\include\pic18f2220.h"
   534                           POSTDEC1 equ 0FE5h ;# 
   535  0000                     # 4824 "C:\Program Files (x86)\Microchip\xc8\v2.00\pic\include\pic18f2220.h"
   536                           POSTINC1 equ 0FE6h ;# 
   537  0000                     # 4831 "C:\Program Files (x86)\Microchip\xc8\v2.00\pic\include\pic18f2220.h"
   538                           INDF1 equ 0FE7h ;# 
   539  0000                     # 4838 "C:\Program Files (x86)\Microchip\xc8\v2.00\pic\include\pic18f2220.h"
   540                           WREG equ 0FE8h ;# 
   541  0000                     # 4850 "C:\Program Files (x86)\Microchip\xc8\v2.00\pic\include\pic18f2220.h"
   542                           FSR0 equ 0FE9h ;# 
   543  0000                     # 4857 "C:\Program Files (x86)\Microchip\xc8\v2.00\pic\include\pic18f2220.h"
   544                           FSR0L equ 0FE9h ;# 
   545  0000                     # 4864 "C:\Program Files (x86)\Microchip\xc8\v2.00\pic\include\pic18f2220.h"
   546                           FSR0H equ 0FEAh ;# 
   547  0000                     # 4871 "C:\Program Files (x86)\Microchip\xc8\v2.00\pic\include\pic18f2220.h"
   548                           PLUSW0 equ 0FEBh ;# 
   549  0000                     # 4878 "C:\Program Files (x86)\Microchip\xc8\v2.00\pic\include\pic18f2220.h"
   550                           PREINC0 equ 0FECh ;# 
   551  0000                     # 4885 "C:\Program Files (x86)\Microchip\xc8\v2.00\pic\include\pic18f2220.h"
   552                           POSTDEC0 equ 0FEDh ;# 
   553  0000                     # 4892 "C:\Program Files (x86)\Microchip\xc8\v2.00\pic\include\pic18f2220.h"
   554                           POSTINC0 equ 0FEEh ;# 
   555  0000                     # 4899 "C:\Program Files (x86)\Microchip\xc8\v2.00\pic\include\pic18f2220.h"
   556                           INDF0 equ 0FEFh ;# 
   557  0000                     # 4906 "C:\Program Files (x86)\Microchip\xc8\v2.00\pic\include\pic18f2220.h"
   558                           INTCON3 equ 0FF0h ;# 
   559  0000                     # 4998 "C:\Program Files (x86)\Microchip\xc8\v2.00\pic\include\pic18f2220.h"
   560                           INTCON2 equ 0FF1h ;# 
   561  0000                     # 5075 "C:\Program Files (x86)\Microchip\xc8\v2.00\pic\include\pic18f2220.h"
   562                           INTCON equ 0FF2h ;# 
   563  0000                     # 5206 "C:\Program Files (x86)\Microchip\xc8\v2.00\pic\include\pic18f2220.h"
   564                           PROD equ 0FF3h ;# 
   565  0000                     # 5213 "C:\Program Files (x86)\Microchip\xc8\v2.00\pic\include\pic18f2220.h"
   566                           PRODL equ 0FF3h ;# 
   567  0000                     # 5220 "C:\Program Files (x86)\Microchip\xc8\v2.00\pic\include\pic18f2220.h"
   568                           PRODH equ 0FF4h ;# 
   569  0000                     # 5227 "C:\Program Files (x86)\Microchip\xc8\v2.00\pic\include\pic18f2220.h"
   570                           TABLAT equ 0FF5h ;# 
   571  0000                     # 5236 "C:\Program Files (x86)\Microchip\xc8\v2.00\pic\include\pic18f2220.h"
   572                           TBLPTR equ 0FF6h ;# 
   573  0000                     # 5243 "C:\Program Files (x86)\Microchip\xc8\v2.00\pic\include\pic18f2220.h"
   574                           TBLPTRL equ 0FF6h ;# 
   575  0000                     # 5250 "C:\Program Files (x86)\Microchip\xc8\v2.00\pic\include\pic18f2220.h"
   576                           TBLPTRH equ 0FF7h ;# 
   577  0000                     # 5257 "C:\Program Files (x86)\Microchip\xc8\v2.00\pic\include\pic18f2220.h"
   578                           TBLPTRU equ 0FF8h ;# 
   579  0000                     # 5266 "C:\Program Files (x86)\Microchip\xc8\v2.00\pic\include\pic18f2220.h"
   580                           PCLAT equ 0FF9h ;# 
   581  0000                     # 5273 "C:\Program Files (x86)\Microchip\xc8\v2.00\pic\include\pic18f2220.h"
   582                           PC equ 0FF9h ;# 
   583  0000                     # 5280 "C:\Program Files (x86)\Microchip\xc8\v2.00\pic\include\pic18f2220.h"
   584                           PCL equ 0FF9h ;# 
   585  0000                     # 5287 "C:\Program Files (x86)\Microchip\xc8\v2.00\pic\include\pic18f2220.h"
   586                           PCLATH equ 0FFAh ;# 
   587  0000                     # 5294 "C:\Program Files (x86)\Microchip\xc8\v2.00\pic\include\pic18f2220.h"
   588                           PCLATU equ 0FFBh ;# 
   589  0000                     # 5301 "C:\Program Files (x86)\Microchip\xc8\v2.00\pic\include\pic18f2220.h"
   590                           STKPTR equ 0FFCh ;# 
   591  0000                     # 5407 "C:\Program Files (x86)\Microchip\xc8\v2.00\pic\include\pic18f2220.h"
   592                           TOS equ 0FFDh ;# 
   593  0000                     # 5414 "C:\Program Files (x86)\Microchip\xc8\v2.00\pic\include\pic18f2220.h"
   594                           TOSL equ 0FFDh ;# 
   595  0000                     # 5421 "C:\Program Files (x86)\Microchip\xc8\v2.00\pic\include\pic18f2220.h"
   596                           TOSH equ 0FFEh ;# 
   597  0000                     # 5428 "C:\Program Files (x86)\Microchip\xc8\v2.00\pic\include\pic18f2220.h"
   598                           TOSU equ 0FFFh ;# 
   599  0000                     	FNCALL	_main,_delay
   600                           	FNCALL	_main,_led_clear
   601                           	FNCALL	_main,_led_init
   602                           	FNCALL	_main,_led_write
   603                           	FNROOT	_main
   604                           	global	_led
   605                           psect	idataCOMRAM,class=CODE,space=0,delta=1,noexec
   606                           global __pidataCOMRAM
   607                           __pidataCOMRAM:
   608  000C22                     	file	"C:/Users/Maulik/MPLABXProjects/PROB1.X/led_driver.c"
   609                           	line	5
   610                           
   611                           ;initializer for _led
   612                           	db	low(01h)
   613  000C22  01                 	db	low(01h)
   614  000C23  01                 	db	low(01h)
   615  000C24  01                 	db	low(01h)
   616  000C25  01                 	db	low(01h)
   617  000C26  01                 	db	low(01h)
   618  000C27  01                 	db	low(0)
   619  000C28  00                 	db	low(0)
   620  000C29  00                 	db	low(01h)
   621  000C2A  01                 	db	low(01h)
   622  000C2B  01                 	db	low(0)
   623  000C2C  00                 	db	low(0)
   624  000C2D  00                 	db	low(0)
   625  000C2E  00                 	db	low(0)
   626  000C2F  00                 	db	low(01h)
   627  000C30  01                 	db	low(01h)
   628  000C31  01                 	db	low(0)
   629  000C32  00                 	db	low(01h)
   630  000C33  01                 	db	low(01h)
   631  000C34  01                 	db	low(0)
   632  000C35  00                 	db	low(01h)
   633  000C36  01                 	db	low(01h)
   634  000C37  01                 	db	low(01h)
   635  000C38  01                 	db	low(01h)
   636  000C39  01                 	db	low(01h)
   637  000C3A  01                 	db	low(0)
   638  000C3B  00                 	db	low(0)
   639  000C3C  00                 	db	low(01h)
   640  000C3D  01                 	db	low(0)
   641  000C3E  00                 	db	low(01h)
   642  000C3F  01                 	db	low(01h)
   643  000C40  01                 	db	low(0)
   644  000C41  00                 	db	low(0)
   645  000C42  00                 	db	low(01h)
   646  000C43  01                 	db	low(01h)
   647  000C44  01                 	db	low(01h)
   648  000C45  01                 	db	low(0)
   649  000C46  00                 	db	low(01h)
   650  000C47  01                 	db	low(01h)
   651  000C48  01                 	db	low(0)
   652  000C49  00                 	db	low(01h)
   653  000C4A  01                 	db	low(01h)
   654  000C4B  01                 	db	low(01h)
   655  000C4C  01                 	db	low(0)
   656  000C4D  00                 	db	low(01h)
   657  000C4E  01                 	db	low(01h)
   658  000C4F  01                 	db	low(01h)
   659  000C50  01                 	db	low(01h)
   660  000C51  01                 	db	low(01h)
   661  000C52  01                 	db	low(01h)
   662  000C53  01                 	db	low(01h)
   663  000C54  01                 	db	low(01h)
   664  000C55  01                 	db	low(0)
   665  000C56  00                 	db	low(0)
   666  000C57  00                 	db	low(0)
   667  000C58  00                 	db	low(0)
   668  000C59  00                 	db	low(01h)
   669  000C5A  01                 	db	low(01h)
   670  000C5B  01                 	db	low(01h)
   671  000C5C  01                 	db	low(01h)
   672  000C5D  01                 	db	low(01h)
   673  000C5E  01                 	db	low(01h)
   674  000C5F  01                 	db	low(01h)
   675  000C60  01                 	db	low(01h)
   676  000C61  01                 	db	low(01h)
   677  000C62  01                 	db	low(01h)
   678  000C63  01                 	db	low(01h)
   679  000C64  01                 	db	low(0)
   680  000C65  00                 	db	low(01h)
   681  000C66  01                 	db	low(01h)
   682  000C67  01                 	global	_LATCbits
   683                           _LATCbits	set	0xF8B
   684  0000                     	global	_TRISCbits
   685                           _TRISCbits	set	0xF94
   686  0000                     	global	_TRISC
   687                           _TRISC	set	0xF94
   688  0000                     ; #config settings
   689                           global __CFG_OSC$INTIO2
   690                           __CFG_OSC$INTIO2 equ 0x0
   691  0000                     global __CFG_FSCM$OFF
   692                           __CFG_FSCM$OFF equ 0x0
   693  0000                     global __CFG_IESO$ON
   694                           __CFG_IESO$ON equ 0x0
   695  0000                     global __CFG_PWRT$OFF
   696                           __CFG_PWRT$OFF equ 0x0
   697  0000                     global __CFG_BOR$OFF
   698                           __CFG_BOR$OFF equ 0x0
   699  0000                     global __CFG_BORV$20
   700                           __CFG_BORV$20 equ 0x0
   701  0000                     global __CFG_WDT$OFF
   702                           __CFG_WDT$OFF equ 0x0
   703  0000                     global __CFG_WDTPS$32768
   704                           __CFG_WDTPS$32768 equ 0x0
   705  0000                     global __CFG_CCP2MX$ON
   706                           __CFG_CCP2MX$ON equ 0x0
   707  0000                     global __CFG_PBAD$ANA
   708                           __CFG_PBAD$ANA equ 0x0
   709  0000                     global __CFG_MCLRE$OFF
   710                           __CFG_MCLRE$OFF equ 0x0
   711  0000                     global __CFG_STVR$ON
   712                           __CFG_STVR$ON equ 0x0
   713  0000                     global __CFG_LVP$ON
   714                           __CFG_LVP$ON equ 0x0
   715  0000                     global __CFG_CP0$OFF
   716                           __CFG_CP0$OFF equ 0x0
   717  0000                     global __CFG_CP1$OFF
   718                           __CFG_CP1$OFF equ 0x0
   719  0000                     global __CFG_CPB$OFF
   720                           __CFG_CPB$OFF equ 0x0
   721  0000                     global __CFG_CPD$OFF
   722                           __CFG_CPD$OFF equ 0x0
   723  0000                     global __CFG_WRT0$OFF
   724                           __CFG_WRT0$OFF equ 0x0
   725  0000                     global __CFG_WRT1$OFF
   726                           __CFG_WRT1$OFF equ 0x0
   727  0000                     global __CFG_WRTC$OFF
   728                           __CFG_WRTC$OFF equ 0x0
   729  0000                     global __CFG_WRTB$OFF
   730                           __CFG_WRTB$OFF equ 0x0
   731  0000                     global __CFG_WRTD$OFF
   732                           __CFG_WRTD$OFF equ 0x0
   733  0000                     global __CFG_EBTR0$OFF
   734                           __CFG_EBTR0$OFF equ 0x0
   735  0000                     global __CFG_EBTR1$OFF
   736                           __CFG_EBTR1$OFF equ 0x0
   737  0000                     global __CFG_EBTRB$OFF
   738                           __CFG_EBTRB$OFF equ 0x0
   739  0000                     	file	"C:\Users\Maulik\AppData\Local\Temp\scm4."
   740                           	line	#
   741                           psect	cinit,class=CODE,delta=1,reloc=2
   742                           global __pcinit
   743                           __pcinit:
   744  000BA2                     global start_initialization
   745                           start_initialization:
   746  000BA2                     
   747                           global __initialization
   748                           __initialization:
   749  000BA2                     psect	dataCOMRAM,class=COMRAM,space=1,noexec
   750                           global __pdataCOMRAM
   751                           __pdataCOMRAM:
   752  000001                     	file	"C:/Users/Maulik/MPLABXProjects/PROB1.X/led_driver.c"
   753                           	line	5
   754                           	global	_led
   755                           _led:
   756  000001                            ds      70
   757  000001                     	file	"C:\Users\Maulik\AppData\Local\Temp\scm4."
   758                           	line	#
   759                           psect	cinit
   760                           ; Initialize objects allocated to COMRAM (70 bytes)
   761                           	global __pidataCOMRAM
   762                           	; load TBLPTR registers with __pidataCOMRAM
   763                           	movlw	low (__pidataCOMRAM)
   764  000BA2  0E22               	movwf	tblptrl
   765  000BA4  6EF6               	movlw	high(__pidataCOMRAM)
   766  000BA6  0E0C               	movwf	tblptrh
   767  000BA8  6EF7               	movlw	low highword(__pidataCOMRAM)
   768  000BAA  0E00               	movwf	tblptru
   769  000BAC  6EF8               	lfsr	0,__pdataCOMRAM
   770  000BAE  EE00  F001         	lfsr	1,70
   771  000BB2  EE10 F046          	copy_data0:
   772  000BB6                     	tblrd	*+
   773  000BB6  0009               	movff	tablat, postinc0
   774  000BB8  CFF5 FFEE          	movf	postdec1,w
   775  000BBC  50E5               	movf	fsr1l,w
   776  000BBE  50E1               	bnz	copy_data0
   777  000BC0  E1FA               psect cinit,class=CODE,delta=1
   778                           global end_of_initialization,__end_of__initialization
   779                           
   780                           ;End of C runtime variable initialization code
   781                           
   782                           end_of_initialization:
   783  000BC2                     __end_of__initialization:
   784  000BC2                     movlb 0
   785  000BC2  0100               goto _main	;jump to C main() function
   786  000BC4  EFF8  F005         psect	cstackCOMRAM,class=COMRAM,space=1,noexec
   787                           global __pcstackCOMRAM
   788                           __pcstackCOMRAM:
   789  000047                     ?_led_init:	; 1 bytes @ 0x0
   790  000047                     ??_led_init:	; 1 bytes @ 0x0
   791  000047                     ?_led_clear:	; 1 bytes @ 0x0
   792  000047                     ??_led_clear:	; 1 bytes @ 0x0
   793  000047                     ?_led_write:	; 1 bytes @ 0x0
   794  000047                     ??_led_write:	; 1 bytes @ 0x0
   795  000047                     ?_delay:	; 1 bytes @ 0x0
   796  000047                     ??_delay:	; 1 bytes @ 0x0
   797  000047                     ?_main:	; 1 bytes @ 0x0
   798  000047                     	global	delay@c
   799                           delay@c:	; 1 bytes @ 0x0
   800  000047                     	global	led_write@i
   801                           led_write@i:	; 1 bytes @ 0x0
   802  000047                     	ds   1
   803  000047                     	global	delay@i
   804                           delay@i:	; 1 bytes @ 0x1
   805  000048                     	ds   1
   806  000048                     ??_main:	; 1 bytes @ 0x2
   807  000049                     ;!
   808                           ;!Data Sizes:
   809                           ;!    Strings     0
   810                           ;!    Constant    0
   811                           ;!    Data        70
   812                           ;!    BSS         0
   813                           ;!    Persistent  0
   814                           ;!    Stack       0
   815                           ;!
   816                           ;!Auto Spaces:
   817                           ;!    Space          Size  Autos    Used
   818                           ;!    COMRAM          127      2      72
   819                           ;!    BANK0           128      0       0
   820                           ;!    BANK1           256      0       0
   821                           
   822                           ;!
   823                           ;!Pointer List with Targets:
   824                           ;!
   825                           ;!    None.
   826                           
   827                           
   828                           ;!
   829                           ;!Critical Paths under _main in COMRAM
   830                           ;!
   831                           ;!    _main->_delay
   832                           ;!
   833                           ;!Critical Paths under _main in BANK0
   834                           ;!
   835                           ;!    None.
   836                           ;!
   837                           ;!Critical Paths under _main in BANK1
   838                           ;!
   839                           ;!    None.
   840                           
   841 ;;
   842 ;;Main: autosize = 0, tempsize = 0, incstack = 0, save=0
   843 ;;
   844                           
   845                           ;!
   846                           ;!Call Graph Tables:
   847                           ;!
   848                           ;! ---------------------------------------------------------------------------------
   849                           ;! (Depth) Function   	        Calls       Base Space   Used Autos Params    Refs
   850                           ;! ---------------------------------------------------------------------------------
   851                           ;! (0) _main                                                 1     1      0     180
   852                           ;!                              _delay
   853                           ;!                          _led_clear
   854                           ;!                           _led_init
   855                           ;!                          _led_write
   856                           ;! ---------------------------------------------------------------------------------
   857                           ;! (1) _led_write                                            1     1      0     150
   858                           ;!                                              0 COMRAM     1     1      0
   859                           ;! ---------------------------------------------------------------------------------
   860                           ;! (1) _led_init                                             0     0      0       0
   861                           ;! ---------------------------------------------------------------------------------
   862                           ;! (1) _led_clear                                            0     0      0       0
   863                           ;! ---------------------------------------------------------------------------------
   864                           ;! (1) _delay                                                2     2      0      30
   865                           ;!                                              0 COMRAM     2     2      0
   866                           ;! ---------------------------------------------------------------------------------
   867                           ;! Estimated maximum stack depth 1
   868                           ;! ---------------------------------------------------------------------------------
   869                           ;!
   870                           ;! Call Graph Graphs:
   871                           ;!
   872                           ;! _main (ROOT)
   873                           ;!   _delay
   874                           ;!   _led_clear
   875                           ;!   _led_init
   876                           ;!   _led_write
   877                           ;!
   878                           
   879                           ;! Address spaces:
   880                           
   881                           ;!Name               Size   Autos  Total    Cost      Usage
   882                           ;!BIGRAM             1FF      0       0       8        0.0%
   883                           ;!EEDATA             100      0       0       0        0.0%
   884                           ;!BITBANK1           100      0       0       5        0.0%
   885                           ;!BANK1              100      0       0       6        0.0%
   886                           ;!BITBANK0            80      0       0       3        0.0%
   887                           ;!BANK0               80      0       0       4        0.0%
   888                           ;!BITCOMRAM           7F      0       0       0        0.0%
   889                           ;!COMRAM              7F      2      48       1       56.7%
   890                           ;!BITSFR               0      0       0     200        0.0%
   891                           ;!SFR                  0      0       0     200        0.0%
   892                           ;!STACK                0      0       0       2        0.0%
   893                           ;!NULL                 0      0       0       0        0.0%
   894                           ;!ABS                  0      0      48       7        0.0%
   895                           ;!DATA                 0      0      48       9        0.0%
   896                           ;!CODE                 0      0       0       0        0.0%
   897                           
   898                           	global	_main
   899                           
   900 ;; *************** function _main *****************
   901 ;; Defined at:
   902 ;;		line 21 in file "newmain.c"
   903 ;; Parameters:    Size  Location     Type
   904 ;;		None
   905 ;; Auto vars:     Size  Location     Type
   906 ;;  j               1    0        unsigned char 
   907 ;; Return value:  Size  Location     Type
   908 ;;                  1    wreg      void 
   909 ;; Registers used:
   910 ;;		wreg, status,2, status,0, cstack
   911 ;; Tracked objects:
   912 ;;		On entry : 0/0
   913 ;;		On exit  : 0/0
   914 ;;		Unchanged: 0/0
   915 ;; Data sizes:     COMRAM   BANK0   BANK1
   916 ;;      Params:         0       0       0
   917 ;;      Locals:         0       0       0
   918 ;;      Temps:          0       0       0
   919 ;;      Totals:         0       0       0
   920 ;;Total ram usage:        0 bytes
   921 ;; Hardware stack levels required when called:    1
   922 ;; This function calls:
   923 ;;		_delay
   924 ;;		_led_clear
   925 ;;		_led_init
   926 ;;		_led_write
   927 ;; This function is called by:
   928 ;;		Startup code after reset
   929 ;; This function uses a non-reentrant model
   930 ;;
   931                           psect	text0,class=CODE,space=0,reloc=2,group=0
   932                           	file	"newmain.c"
   933                           	line	21
   934                           global __ptext0
   935                           __ptext0:
   936  000BF0                     psect	text0
   937                           	file	"newmain.c"
   938                           	line	21
   939                           	global	__size_of_main
   940                           	__size_of_main	equ	__end_of_main-_main
   941  0000                     	
   942                           _main:
   943  000BF0                     ;incstack = 0
   944                           	opt	stack 30
   945                           	line	23
   946                           	
   947                           l773:
   948  000BF0                     ;newmain.c: 22:     unsigned char j;;newmain.c: 23:     TRISC = 0x00;
   949                           	movlw	low(0)
   950  000BF0  0E00               	movwf	((c:3988)),c	;volatile
   951  000BF2  6E94               	line	24
   952                           	
   953                           l775:
   954  000BF4                     ;newmain.c: 24:     led_init();
   955                           	call	_led_init	;wreg free
   956  000BF4  ECC8  F005         	line	25
   957                           	
   958                           l777:
   959  000BF8                     ;newmain.c: 25:     led_clear();
   960                           	call	_led_clear	;wreg free
   961  000BF8  ECC0  F005         	goto	l779
   962  000BFC  EF00  F006         	line	26
   963                           ;newmain.c: 26:     while (1) {
   964                           	
   965                           l19:
   966  000C00                     	line	28
   967                           	
   968                           l779:
   969  000C00                     ;newmain.c: 28:           led_write(5);
   970                           	movlw	(05h)&0ffh
   971  000C00  0E05               	
   972                           	call	_led_write
   973  000C02  EC34  F006         	line	29
   974                           	
   975                           l781:
   976  000C06                     ;newmain.c: 29:           delay(100);
   977                           	movlw	(064h)&0ffh
   978  000C06  0E64               	
   979                           	call	_delay
   980  000C08  ECE4  F005         	line	30
   981                           	
   982                           l783:
   983  000C0C                     ;newmain.c: 30:           led_clear();
   984                           	call	_led_clear	;wreg free
   985  000C0C  ECC0  F005         	line	31
   986                           	
   987                           l785:
   988  000C10                     ;newmain.c: 31:           delay(100);
   989                           	movlw	(064h)&0ffh
   990  000C10  0E64               	
   991                           	call	_delay
   992  000C12  ECE4  F005         	goto	l779
   993  000C16  EF00  F006         	line	34
   994                           ;newmain.c: 34:     }
   995                           	
   996                           l20:
   997  000C1A                     	goto	l779
   998  000C1A  EF00  F006         	
   999                           l21:
  1000  000C1E                     	line	35
  1001                           	
  1002                           l22:
  1003  000C1E                     	global	start
  1004                           	goto	start
  1005  000C1E  EF00  F000         	opt stack 0
  1006                           GLOBAL	__end_of_main
  1007                           	__end_of_main:
  1008  000C22                     	signat	_main,89
  1009                           	global	_led_write
  1010                           
  1011 ;; *************** function _led_write *****************
  1012 ;; Defined at:
  1013 ;;		line 46 in file "C:/Users/Maulik/MPLABXProjects/PROB1.X/led_driver.c"
  1014 ;; Parameters:    Size  Location     Type
  1015 ;;  i               1    wreg     unsigned char 
  1016 ;; Auto vars:     Size  Location     Type
  1017 ;;  i               1    0[COMRAM] unsigned char 
  1018 ;; Return value:  Size  Location     Type
  1019 ;;                  1    wreg      void 
  1020 ;; Registers used:
  1021 ;;		wreg, status,2, status,0
  1022 ;; Tracked objects:
  1023 ;;		On entry : 0/0
  1024 ;;		On exit  : 0/0
  1025 ;;		Unchanged: 0/0
  1026 ;; Data sizes:     COMRAM   BANK0   BANK1
  1027 ;;      Params:         0       0       0
  1028 ;;      Locals:         1       0       0
  1029 ;;      Temps:          0       0       0
  1030 ;;      Totals:         1       0       0
  1031 ;;Total ram usage:        1 bytes
  1032 ;; Hardware stack levels used:    1
  1033 ;; This function calls:
  1034 ;;		Nothing
  1035 ;; This function is called by:
  1036 ;;		_main
  1037 ;; This function uses a non-reentrant model
  1038 ;;
  1039                           psect	text1,class=CODE,space=0,reloc=2,group=0
  1040                           	file	"C:/Users/Maulik/MPLABXProjects/PROB1.X/led_driver.c"
  1041                           	line	46
  1042                           global __ptext1
  1043                           __ptext1:
  1044  000C68                     psect	text1
  1045                           	file	"C:/Users/Maulik/MPLABXProjects/PROB1.X/led_driver.c"
  1046                           	line	46
  1047                           	global	__size_of_led_write
  1048                           	__size_of_led_write	equ	__end_of_led_write-_led_write
  1049  0000                     	
  1050                           _led_write:
  1051  000C68                     ;incstack = 0
  1052                           	opt	stack 30
  1053                           ;led_write@i stored from wreg
  1054                           	movwf	((c:led_write@i)),c
  1055  000C68  6E47               	line	47
  1056                           	
  1057                           l733:
  1058  000C6A                     ;C:/Users/Maulik/MPLABXProjects/PROB1.X/led_driver.c: 47:     if (i == 0) {
  1059                           	movf	((c:led_write@i)),c,w
  1060  000C6A  5047               	btfss	status,2
  1061  000C6C  A4D8               	goto	u21
  1062  000C6E  EF3B  F006         	goto	u20
  1063  000C72  EF3D  F006         u21:
  1064  000C76                     	goto	l737
  1065  000C76  EF62  F006         u20:
  1066  000C7A                     	line	48
  1067                           	
  1068                           l735:
  1069  000C7A                     ;C:/Users/Maulik/MPLABXProjects/PROB1.X/led_driver.c: 48:         LATCbits.LATC1 = led[0
                                 ][0];
  1070                           	btfsc	(c:_led),c,0
  1071  000C7A  B001               	bra	u35
  1072  000C7C  D002               	bcf	((c:3979)),c,1	;volatile
  1073  000C7E  928B               	bra	u36
  1074  000C80  D001               	u35:
  1075  000C82                     	bsf	((c:3979)),c,1	;volatile
  1076  000C82  828B               	u36:
  1077  000C84                     
  1078                           	line	49
  1079                           ;C:/Users/Maulik/MPLABXProjects/PROB1.X/led_driver.c: 49:         LATCbits.LATC2 = led[0
                                 ][1];
  1080                           	btfsc	0+((c:_led)+01h),c,0
  1081  000C84  B002               	bra	u45
  1082  000C86  D002               	bcf	((c:3979)),c,2	;volatile
  1083  000C88  948B               	bra	u46
  1084  000C8A  D001               	u45:
  1085  000C8C                     	bsf	((c:3979)),c,2	;volatile
  1086  000C8C  848B               	u46:
  1087  000C8E                     
  1088                           	line	50
  1089                           ;C:/Users/Maulik/MPLABXProjects/PROB1.X/led_driver.c: 50:         LATCbits.LATC3 = led[0
                                 ][2];
  1090                           	btfsc	0+((c:_led)+02h),c,0
  1091  000C8E  B003               	bra	u55
  1092  000C90  D002               	bcf	((c:3979)),c,3	;volatile
  1093  000C92  968B               	bra	u56
  1094  000C94  D001               	u55:
  1095  000C96                     	bsf	((c:3979)),c,3	;volatile
  1096  000C96  868B               	u56:
  1097  000C98                     
  1098                           	line	51
  1099                           ;C:/Users/Maulik/MPLABXProjects/PROB1.X/led_driver.c: 51:         LATCbits.LATC4 = led[0
                                 ][3];
  1100                           	btfsc	0+((c:_led)+03h),c,0
  1101  000C98  B004               	bra	u65
  1102  000C9A  D002               	bcf	((c:3979)),c,4	;volatile
  1103  000C9C  988B               	bra	u66
  1104  000C9E  D001               	u65:
  1105  000CA0                     	bsf	((c:3979)),c,4	;volatile
  1106  000CA0  888B               	u66:
  1107  000CA2                     
  1108                           	line	52
  1109                           ;C:/Users/Maulik/MPLABXProjects/PROB1.X/led_driver.c: 52:         LATCbits.LATC5 = led[0
                                 ][4];
  1110                           	btfsc	0+((c:_led)+04h),c,0
  1111  000CA2  B005               	bra	u75
  1112  000CA4  D002               	bcf	((c:3979)),c,5	;volatile
  1113  000CA6  9A8B               	bra	u76
  1114  000CA8  D001               	u75:
  1115  000CAA                     	bsf	((c:3979)),c,5	;volatile
  1116  000CAA  8A8B               	u76:
  1117  000CAC                     
  1118                           	line	53
  1119                           ;C:/Users/Maulik/MPLABXProjects/PROB1.X/led_driver.c: 53:         LATCbits.LATC6 = led[0
                                 ][5];
  1120                           	btfsc	0+((c:_led)+05h),c,0
  1121  000CAC  B006               	bra	u85
  1122  000CAE  D002               	bcf	((c:3979)),c,6	;volatile
  1123  000CB0  9C8B               	bra	u86
  1124  000CB2  D001               	u85:
  1125  000CB4                     	bsf	((c:3979)),c,6	;volatile
  1126  000CB4  8C8B               	u86:
  1127  000CB6                     
  1128                           	line	54
  1129                           ;C:/Users/Maulik/MPLABXProjects/PROB1.X/led_driver.c: 54:         LATCbits.LATC7 = led[0
                                 ][6];
  1130                           	btfsc	0+((c:_led)+06h),c,0
  1131  000CB6  B007               	bra	u95
  1132  000CB8  D002               	bcf	((c:3979)),c,7	;volatile
  1133  000CBA  9E8B               	bra	u96
  1134  000CBC  D001               	u95:
  1135  000CBE                     	bsf	((c:3979)),c,7	;volatile
  1136  000CBE  8E8B               	u96:
  1137  000CC0                     
  1138                           	goto	l737
  1139  000CC0  EF62  F006         	line	55
  1140                           ;C:/Users/Maulik/MPLABXProjects/PROB1.X/led_driver.c: 55:     }
  1141                           	
  1142                           l37:
  1143  000CC4                     	line	56
  1144                           	
  1145                           l737:
  1146  000CC4                     ;C:/Users/Maulik/MPLABXProjects/PROB1.X/led_driver.c: 56:     if (i == 1) {
  1147                           		decf	((c:led_write@i)),c,w
  1148  000CC4  0447               	btfss	status,2
  1149  000CC6  A4D8               	goto	u101
  1150  000CC8  EF68  F006         	goto	u100
  1151  000CCC  EF6A  F006         
  1152                           u101:
  1153  000CD0                     	goto	l741
  1154  000CD0  EF8F  F006         u100:
  1155  000CD4                     	line	57
  1156                           	
  1157                           l739:
  1158  000CD4                     ;C:/Users/Maulik/MPLABXProjects/PROB1.X/led_driver.c: 57:         LATCbits.LATC1 = led[1
                                 ][0];
  1159                           	btfsc	0+((c:_led)+07h),c,0
  1160  000CD4  B008               	bra	u115
  1161  000CD6  D002               	bcf	((c:3979)),c,1	;volatile
  1162  000CD8  928B               	bra	u116
  1163  000CDA  D001               	u115:
  1164  000CDC                     	bsf	((c:3979)),c,1	;volatile
  1165  000CDC  828B               	u116:
  1166  000CDE                     
  1167                           	line	58
  1168                           ;C:/Users/Maulik/MPLABXProjects/PROB1.X/led_driver.c: 58:         LATCbits.LATC2 = led[1
                                 ][1];
  1169                           	btfsc	0+((c:_led)+08h),c,0
  1170  000CDE  B009               	bra	u125
  1171  000CE0  D002               	bcf	((c:3979)),c,2	;volatile
  1172  000CE2  948B               	bra	u126
  1173  000CE4  D001               	u125:
  1174  000CE6                     	bsf	((c:3979)),c,2	;volatile
  1175  000CE6  848B               	u126:
  1176  000CE8                     
  1177                           	line	59
  1178                           ;C:/Users/Maulik/MPLABXProjects/PROB1.X/led_driver.c: 59:         LATCbits.LATC3 = led[1
                                 ][2];
  1179                           	btfsc	0+((c:_led)+09h),c,0
  1180  000CE8  B00A               	bra	u135
  1181  000CEA  D002               	bcf	((c:3979)),c,3	;volatile
  1182  000CEC  968B               	bra	u136
  1183  000CEE  D001               	u135:
  1184  000CF0                     	bsf	((c:3979)),c,3	;volatile
  1185  000CF0  868B               	u136:
  1186  000CF2                     
  1187                           	line	60
  1188                           ;C:/Users/Maulik/MPLABXProjects/PROB1.X/led_driver.c: 60:         LATCbits.LATC4 = led[1
                                 ][3];
  1189                           	btfsc	0+((c:_led)+0Ah),c,0
  1190  000CF2  B00B               	bra	u145
  1191  000CF4  D002               	bcf	((c:3979)),c,4	;volatile
  1192  000CF6  988B               	bra	u146
  1193  000CF8  D001               	u145:
  1194  000CFA                     	bsf	((c:3979)),c,4	;volatile
  1195  000CFA  888B               	u146:
  1196  000CFC                     
  1197                           	line	61
  1198                           ;C:/Users/Maulik/MPLABXProjects/PROB1.X/led_driver.c: 61:         LATCbits.LATC5 = led[1
                                 ][4];
  1199                           	btfsc	0+((c:_led)+0Bh),c,0
  1200  000CFC  B00C               	bra	u155
  1201  000CFE  D002               	bcf	((c:3979)),c,5	;volatile
  1202  000D00  9A8B               	bra	u156
  1203  000D02  D001               	u155:
  1204  000D04                     	bsf	((c:3979)),c,5	;volatile
  1205  000D04  8A8B               	u156:
  1206  000D06                     
  1207                           	line	62
  1208                           ;C:/Users/Maulik/MPLABXProjects/PROB1.X/led_driver.c: 62:         LATCbits.LATC6 = led[1
                                 ][5];
  1209                           	btfsc	0+((c:_led)+0Ch),c,0
  1210  000D06  B00D               	bra	u165
  1211  000D08  D002               	bcf	((c:3979)),c,6	;volatile
  1212  000D0A  9C8B               	bra	u166
  1213  000D0C  D001               	u165:
  1214  000D0E                     	bsf	((c:3979)),c,6	;volatile
  1215  000D0E  8C8B               	u166:
  1216  000D10                     
  1217                           	line	63
  1218                           ;C:/Users/Maulik/MPLABXProjects/PROB1.X/led_driver.c: 63:         LATCbits.LATC7 = led[1
                                 ][6];
  1219                           	btfsc	0+((c:_led)+0Dh),c,0
  1220  000D10  B00E               	bra	u175
  1221  000D12  D002               	bcf	((c:3979)),c,7	;volatile
  1222  000D14  9E8B               	bra	u176
  1223  000D16  D001               	u175:
  1224  000D18                     	bsf	((c:3979)),c,7	;volatile
  1225  000D18  8E8B               	u176:
  1226  000D1A                     
  1227                           	goto	l741
  1228  000D1A  EF8F  F006         	line	64
  1229                           ;C:/Users/Maulik/MPLABXProjects/PROB1.X/led_driver.c: 64:     }
  1230                           	
  1231                           l38:
  1232  000D1E                     	line	65
  1233                           	
  1234                           l741:
  1235  000D1E                     ;C:/Users/Maulik/MPLABXProjects/PROB1.X/led_driver.c: 65:     if (i == 2) {
  1236                           		movlw	2
  1237  000D1E  0E02               	xorwf	((c:led_write@i)),c,w
  1238  000D20  1847               	btfss	status,2
  1239  000D22  A4D8               	goto	u181
  1240  000D24  EF96  F006         	goto	u180
  1241  000D28  EF98  F006         
  1242                           u181:
  1243  000D2C                     	goto	l745
  1244  000D2C  EFBD  F006         u180:
  1245  000D30                     	line	66
  1246                           	
  1247                           l743:
  1248  000D30                     ;C:/Users/Maulik/MPLABXProjects/PROB1.X/led_driver.c: 66:         LATCbits.LATC1 = led[2
                                 ][0];
  1249                           	btfsc	0+((c:_led)+0Eh),c,0
  1250  000D30  B00F               	bra	u195
  1251  000D32  D002               	bcf	((c:3979)),c,1	;volatile
  1252  000D34  928B               	bra	u196
  1253  000D36  D001               	u195:
  1254  000D38                     	bsf	((c:3979)),c,1	;volatile
  1255  000D38  828B               	u196:
  1256  000D3A                     
  1257                           	line	67
  1258                           ;C:/Users/Maulik/MPLABXProjects/PROB1.X/led_driver.c: 67:         LATCbits.LATC2 = led[2
                                 ][1];
  1259                           	btfsc	0+((c:_led)+0Fh),c,0
  1260  000D3A  B010               	bra	u205
  1261  000D3C  D002               	bcf	((c:3979)),c,2	;volatile
  1262  000D3E  948B               	bra	u206
  1263  000D40  D001               	u205:
  1264  000D42                     	bsf	((c:3979)),c,2	;volatile
  1265  000D42  848B               	u206:
  1266  000D44                     
  1267                           	line	68
  1268                           ;C:/Users/Maulik/MPLABXProjects/PROB1.X/led_driver.c: 68:         LATCbits.LATC3 = led[2
                                 ][2];
  1269                           	btfsc	0+((c:_led)+010h),c,0
  1270  000D44  B011               	bra	u215
  1271  000D46  D002               	bcf	((c:3979)),c,3	;volatile
  1272  000D48  968B               	bra	u216
  1273  000D4A  D001               	u215:
  1274  000D4C                     	bsf	((c:3979)),c,3	;volatile
  1275  000D4C  868B               	u216:
  1276  000D4E                     
  1277                           	line	69
  1278                           ;C:/Users/Maulik/MPLABXProjects/PROB1.X/led_driver.c: 69:         LATCbits.LATC4 = led[2
                                 ][3];
  1279                           	btfsc	0+((c:_led)+011h),c,0
  1280  000D4E  B012               	bra	u225
  1281  000D50  D002               	bcf	((c:3979)),c,4	;volatile
  1282  000D52  988B               	bra	u226
  1283  000D54  D001               	u225:
  1284  000D56                     	bsf	((c:3979)),c,4	;volatile
  1285  000D56  888B               	u226:
  1286  000D58                     
  1287                           	line	70
  1288                           ;C:/Users/Maulik/MPLABXProjects/PROB1.X/led_driver.c: 70:         LATCbits.LATC5 = led[2
                                 ][4];
  1289                           	btfsc	0+((c:_led)+012h),c,0
  1290  000D58  B013               	bra	u235
  1291  000D5A  D002               	bcf	((c:3979)),c,5	;volatile
  1292  000D5C  9A8B               	bra	u236
  1293  000D5E  D001               	u235:
  1294  000D60                     	bsf	((c:3979)),c,5	;volatile
  1295  000D60  8A8B               	u236:
  1296  000D62                     
  1297                           	line	71
  1298                           ;C:/Users/Maulik/MPLABXProjects/PROB1.X/led_driver.c: 71:         LATCbits.LATC6 = led[2
                                 ][5];
  1299                           	btfsc	0+((c:_led)+013h),c,0
  1300  000D62  B014               	bra	u245
  1301  000D64  D002               	bcf	((c:3979)),c,6	;volatile
  1302  000D66  9C8B               	bra	u246
  1303  000D68  D001               	u245:
  1304  000D6A                     	bsf	((c:3979)),c,6	;volatile
  1305  000D6A  8C8B               	u246:
  1306  000D6C                     
  1307                           	line	72
  1308                           ;C:/Users/Maulik/MPLABXProjects/PROB1.X/led_driver.c: 72:         LATCbits.LATC7 = led[2
                                 ][6];
  1309                           	btfsc	0+((c:_led)+014h),c,0
  1310  000D6C  B015               	bra	u255
  1311  000D6E  D002               	bcf	((c:3979)),c,7	;volatile
  1312  000D70  9E8B               	bra	u256
  1313  000D72  D001               	u255:
  1314  000D74                     	bsf	((c:3979)),c,7	;volatile
  1315  000D74  8E8B               	u256:
  1316  000D76                     
  1317                           	goto	l745
  1318  000D76  EFBD  F006         	line	73
  1319                           ;C:/Users/Maulik/MPLABXProjects/PROB1.X/led_driver.c: 73:     }
  1320                           	
  1321                           l39:
  1322  000D7A                     	line	74
  1323                           	
  1324                           l745:
  1325  000D7A                     ;C:/Users/Maulik/MPLABXProjects/PROB1.X/led_driver.c: 74:     if (i == 3) {
  1326                           		movlw	3
  1327  000D7A  0E03               	xorwf	((c:led_write@i)),c,w
  1328  000D7C  1847               	btfss	status,2
  1329  000D7E  A4D8               	goto	u261
  1330  000D80  EFC4  F006         	goto	u260
  1331  000D84  EFC6  F006         
  1332                           u261:
  1333  000D88                     	goto	l749
  1334  000D88  EFEB  F006         u260:
  1335  000D8C                     	line	75
  1336                           	
  1337                           l747:
  1338  000D8C                     ;C:/Users/Maulik/MPLABXProjects/PROB1.X/led_driver.c: 75:         LATCbits.LATC1 = led[3
                                 ][0];
  1339                           	btfsc	0+((c:_led)+015h),c,0
  1340  000D8C  B016               	bra	u275
  1341  000D8E  D002               	bcf	((c:3979)),c,1	;volatile
  1342  000D90  928B               	bra	u276
  1343  000D92  D001               	u275:
  1344  000D94                     	bsf	((c:3979)),c,1	;volatile
  1345  000D94  828B               	u276:
  1346  000D96                     
  1347                           	line	76
  1348                           ;C:/Users/Maulik/MPLABXProjects/PROB1.X/led_driver.c: 76:         LATCbits.LATC2 = led[3
                                 ][1];
  1349                           	btfsc	0+((c:_led)+016h),c,0
  1350  000D96  B017               	bra	u285
  1351  000D98  D002               	bcf	((c:3979)),c,2	;volatile
  1352  000D9A  948B               	bra	u286
  1353  000D9C  D001               	u285:
  1354  000D9E                     	bsf	((c:3979)),c,2	;volatile
  1355  000D9E  848B               	u286:
  1356  000DA0                     
  1357                           	line	77
  1358                           ;C:/Users/Maulik/MPLABXProjects/PROB1.X/led_driver.c: 77:         LATCbits.LATC3 = led[3
                                 ][2];
  1359                           	btfsc	0+((c:_led)+017h),c,0
  1360  000DA0  B018               	bra	u295
  1361  000DA2  D002               	bcf	((c:3979)),c,3	;volatile
  1362  000DA4  968B               	bra	u296
  1363  000DA6  D001               	u295:
  1364  000DA8                     	bsf	((c:3979)),c,3	;volatile
  1365  000DA8  868B               	u296:
  1366  000DAA                     
  1367                           	line	78
  1368                           ;C:/Users/Maulik/MPLABXProjects/PROB1.X/led_driver.c: 78:         LATCbits.LATC4 = led[3
                                 ][3];
  1369                           	btfsc	0+((c:_led)+018h),c,0
  1370  000DAA  B019               	bra	u305
  1371  000DAC  D002               	bcf	((c:3979)),c,4	;volatile
  1372  000DAE  988B               	bra	u306
  1373  000DB0  D001               	u305:
  1374  000DB2                     	bsf	((c:3979)),c,4	;volatile
  1375  000DB2  888B               	u306:
  1376  000DB4                     
  1377                           	line	79
  1378                           ;C:/Users/Maulik/MPLABXProjects/PROB1.X/led_driver.c: 79:         LATCbits.LATC5 = led[3
                                 ][4];
  1379                           	btfsc	0+((c:_led)+019h),c,0
  1380  000DB4  B01A               	bra	u315
  1381  000DB6  D002               	bcf	((c:3979)),c,5	;volatile
  1382  000DB8  9A8B               	bra	u316
  1383  000DBA  D001               	u315:
  1384  000DBC                     	bsf	((c:3979)),c,5	;volatile
  1385  000DBC  8A8B               	u316:
  1386  000DBE                     
  1387                           	line	80
  1388                           ;C:/Users/Maulik/MPLABXProjects/PROB1.X/led_driver.c: 80:         LATCbits.LATC6 = led[3
                                 ][5];
  1389                           	btfsc	0+((c:_led)+01Ah),c,0
  1390  000DBE  B01B               	bra	u325
  1391  000DC0  D002               	bcf	((c:3979)),c,6	;volatile
  1392  000DC2  9C8B               	bra	u326
  1393  000DC4  D001               	u325:
  1394  000DC6                     	bsf	((c:3979)),c,6	;volatile
  1395  000DC6  8C8B               	u326:
  1396  000DC8                     
  1397                           	line	81
  1398                           ;C:/Users/Maulik/MPLABXProjects/PROB1.X/led_driver.c: 81:         LATCbits.LATC7 = led[3
                                 ][6];
  1399                           	btfsc	0+((c:_led)+01Bh),c,0
  1400  000DC8  B01C               	bra	u335
  1401  000DCA  D002               	bcf	((c:3979)),c,7	;volatile
  1402  000DCC  9E8B               	bra	u336
  1403  000DCE  D001               	u335:
  1404  000DD0                     	bsf	((c:3979)),c,7	;volatile
  1405  000DD0  8E8B               	u336:
  1406  000DD2                     
  1407                           	goto	l749
  1408  000DD2  EFEB  F006         	line	82
  1409                           ;C:/Users/Maulik/MPLABXProjects/PROB1.X/led_driver.c: 82:     }
  1410                           	
  1411                           l40:
  1412  000DD6                     	line	85
  1413                           	
  1414                           l749:
  1415  000DD6                     ;C:/Users/Maulik/MPLABXProjects/PROB1.X/led_driver.c: 85:     if (i == 4) {
  1416                           		movlw	4
  1417  000DD6  0E04               	xorwf	((c:led_write@i)),c,w
  1418  000DD8  1847               	btfss	status,2
  1419  000DDA  A4D8               	goto	u341
  1420  000DDC  EFF2  F006         	goto	u340
  1421  000DE0  EFF4  F006         
  1422                           u341:
  1423  000DE4                     	goto	l753
  1424  000DE4  EF19  F007         u340:
  1425  000DE8                     	line	86
  1426                           	
  1427                           l751:
  1428  000DE8                     ;C:/Users/Maulik/MPLABXProjects/PROB1.X/led_driver.c: 86:         LATCbits.LATC1 = led[4
                                 ][0];
  1429                           	btfsc	0+((c:_led)+01Ch),c,0
  1430  000DE8  B01D               	bra	u355
  1431  000DEA  D002               	bcf	((c:3979)),c,1	;volatile
  1432  000DEC  928B               	bra	u356
  1433  000DEE  D001               	u355:
  1434  000DF0                     	bsf	((c:3979)),c,1	;volatile
  1435  000DF0  828B               	u356:
  1436  000DF2                     
  1437                           	line	87
  1438                           ;C:/Users/Maulik/MPLABXProjects/PROB1.X/led_driver.c: 87:         LATCbits.LATC2 = led[4
                                 ][1];
  1439                           	btfsc	0+((c:_led)+01Dh),c,0
  1440  000DF2  B01E               	bra	u365
  1441  000DF4  D002               	bcf	((c:3979)),c,2	;volatile
  1442  000DF6  948B               	bra	u366
  1443  000DF8  D001               	u365:
  1444  000DFA                     	bsf	((c:3979)),c,2	;volatile
  1445  000DFA  848B               	u366:
  1446  000DFC                     
  1447                           	line	88
  1448                           ;C:/Users/Maulik/MPLABXProjects/PROB1.X/led_driver.c: 88:         LATCbits.LATC3 = led[4
                                 ][2];
  1449                           	btfsc	0+((c:_led)+01Eh),c,0
  1450  000DFC  B01F               	bra	u375
  1451  000DFE  D002               	bcf	((c:3979)),c,3	;volatile
  1452  000E00  968B               	bra	u376
  1453  000E02  D001               	u375:
  1454  000E04                     	bsf	((c:3979)),c,3	;volatile
  1455  000E04  868B               	u376:
  1456  000E06                     
  1457                           	line	89
  1458                           ;C:/Users/Maulik/MPLABXProjects/PROB1.X/led_driver.c: 89:         LATCbits.LATC4 = led[4
                                 ][3];
  1459                           	btfsc	0+((c:_led)+01Fh),c,0
  1460  000E06  B020               	bra	u385
  1461  000E08  D002               	bcf	((c:3979)),c,4	;volatile
  1462  000E0A  988B               	bra	u386
  1463  000E0C  D001               	u385:
  1464  000E0E                     	bsf	((c:3979)),c,4	;volatile
  1465  000E0E  888B               	u386:
  1466  000E10                     
  1467                           	line	90
  1468                           ;C:/Users/Maulik/MPLABXProjects/PROB1.X/led_driver.c: 90:         LATCbits.LATC5 = led[4
                                 ][4];
  1469                           	btfsc	0+((c:_led)+020h),c,0
  1470  000E10  B021               	bra	u395
  1471  000E12  D002               	bcf	((c:3979)),c,5	;volatile
  1472  000E14  9A8B               	bra	u396
  1473  000E16  D001               	u395:
  1474  000E18                     	bsf	((c:3979)),c,5	;volatile
  1475  000E18  8A8B               	u396:
  1476  000E1A                     
  1477                           	line	91
  1478                           ;C:/Users/Maulik/MPLABXProjects/PROB1.X/led_driver.c: 91:         LATCbits.LATC6 = led[4
                                 ][5];
  1479                           	btfsc	0+((c:_led)+021h),c,0
  1480  000E1A  B022               	bra	u405
  1481  000E1C  D002               	bcf	((c:3979)),c,6	;volatile
  1482  000E1E  9C8B               	bra	u406
  1483  000E20  D001               	u405:
  1484  000E22                     	bsf	((c:3979)),c,6	;volatile
  1485  000E22  8C8B               	u406:
  1486  000E24                     
  1487                           	line	92
  1488                           ;C:/Users/Maulik/MPLABXProjects/PROB1.X/led_driver.c: 92:         LATCbits.LATC7 = led[4
                                 ][6];
  1489                           	btfsc	0+((c:_led)+022h),c,0
  1490  000E24  B023               	bra	u415
  1491  000E26  D002               	bcf	((c:3979)),c,7	;volatile
  1492  000E28  9E8B               	bra	u416
  1493  000E2A  D001               	u415:
  1494  000E2C                     	bsf	((c:3979)),c,7	;volatile
  1495  000E2C  8E8B               	u416:
  1496  000E2E                     
  1497                           	goto	l753
  1498  000E2E  EF19  F007         	line	93
  1499                           ;C:/Users/Maulik/MPLABXProjects/PROB1.X/led_driver.c: 93:     }
  1500                           	
  1501                           l41:
  1502  000E32                     	line	94
  1503                           	
  1504                           l753:
  1505  000E32                     ;C:/Users/Maulik/MPLABXProjects/PROB1.X/led_driver.c: 94:     if (i == 5) {
  1506                           		movlw	5
  1507  000E32  0E05               	xorwf	((c:led_write@i)),c,w
  1508  000E34  1847               	btfss	status,2
  1509  000E36  A4D8               	goto	u421
  1510  000E38  EF20  F007         	goto	u420
  1511  000E3C  EF22  F007         
  1512                           u421:
  1513  000E40                     	goto	l757
  1514  000E40  EF47  F007         u420:
  1515  000E44                     	line	95
  1516                           	
  1517                           l755:
  1518  000E44                     ;C:/Users/Maulik/MPLABXProjects/PROB1.X/led_driver.c: 95:         LATCbits.LATC1 = led[5
                                 ][0];
  1519                           	btfsc	0+((c:_led)+023h),c,0
  1520  000E44  B024               	bra	u435
  1521  000E46  D002               	bcf	((c:3979)),c,1	;volatile
  1522  000E48  928B               	bra	u436
  1523  000E4A  D001               	u435:
  1524  000E4C                     	bsf	((c:3979)),c,1	;volatile
  1525  000E4C  828B               	u436:
  1526  000E4E                     
  1527                           	line	96
  1528                           ;C:/Users/Maulik/MPLABXProjects/PROB1.X/led_driver.c: 96:         LATCbits.LATC2 = led[5
                                 ][1];
  1529                           	btfsc	0+((c:_led)+024h),c,0
  1530  000E4E  B025               	bra	u445
  1531  000E50  D002               	bcf	((c:3979)),c,2	;volatile
  1532  000E52  948B               	bra	u446
  1533  000E54  D001               	u445:
  1534  000E56                     	bsf	((c:3979)),c,2	;volatile
  1535  000E56  848B               	u446:
  1536  000E58                     
  1537                           	line	97
  1538                           ;C:/Users/Maulik/MPLABXProjects/PROB1.X/led_driver.c: 97:         LATCbits.LATC3 = led[5
                                 ][2];
  1539                           	btfsc	0+((c:_led)+025h),c,0
  1540  000E58  B026               	bra	u455
  1541  000E5A  D002               	bcf	((c:3979)),c,3	;volatile
  1542  000E5C  968B               	bra	u456
  1543  000E5E  D001               	u455:
  1544  000E60                     	bsf	((c:3979)),c,3	;volatile
  1545  000E60  868B               	u456:
  1546  000E62                     
  1547                           	line	98
  1548                           ;C:/Users/Maulik/MPLABXProjects/PROB1.X/led_driver.c: 98:         LATCbits.LATC4 = led[5
                                 ][3];
  1549                           	btfsc	0+((c:_led)+026h),c,0
  1550  000E62  B027               	bra	u465
  1551  000E64  D002               	bcf	((c:3979)),c,4	;volatile
  1552  000E66  988B               	bra	u466
  1553  000E68  D001               	u465:
  1554  000E6A                     	bsf	((c:3979)),c,4	;volatile
  1555  000E6A  888B               	u466:
  1556  000E6C                     
  1557                           	line	99
  1558                           ;C:/Users/Maulik/MPLABXProjects/PROB1.X/led_driver.c: 99:         LATCbits.LATC5 = led[5
                                 ][4];
  1559                           	btfsc	0+((c:_led)+027h),c,0
  1560  000E6C  B028               	bra	u475
  1561  000E6E  D002               	bcf	((c:3979)),c,5	;volatile
  1562  000E70  9A8B               	bra	u476
  1563  000E72  D001               	u475:
  1564  000E74                     	bsf	((c:3979)),c,5	;volatile
  1565  000E74  8A8B               	u476:
  1566  000E76                     
  1567                           	line	100
  1568                           ;C:/Users/Maulik/MPLABXProjects/PROB1.X/led_driver.c: 100:         LATCbits.LATC6 = led[
                                 5][5];
  1569                           	btfsc	0+((c:_led)+028h),c,0
  1570  000E76  B029               	bra	u485
  1571  000E78  D002               	bcf	((c:3979)),c,6	;volatile
  1572  000E7A  9C8B               	bra	u486
  1573  000E7C  D001               	u485:
  1574  000E7E                     	bsf	((c:3979)),c,6	;volatile
  1575  000E7E  8C8B               	u486:
  1576  000E80                     
  1577                           	line	101
  1578                           ;C:/Users/Maulik/MPLABXProjects/PROB1.X/led_driver.c: 101:         LATCbits.LATC7 = led[
                                 5][6];
  1579                           	btfsc	0+((c:_led)+029h),c,0
  1580  000E80  B02A               	bra	u495
  1581  000E82  D002               	bcf	((c:3979)),c,7	;volatile
  1582  000E84  9E8B               	bra	u496
  1583  000E86  D001               	u495:
  1584  000E88                     	bsf	((c:3979)),c,7	;volatile
  1585  000E88  8E8B               	u496:
  1586  000E8A                     
  1587                           	goto	l757
  1588  000E8A  EF47  F007         	line	102
  1589                           ;C:/Users/Maulik/MPLABXProjects/PROB1.X/led_driver.c: 102:     }
  1590                           	
  1591                           l42:
  1592  000E8E                     	line	103
  1593                           	
  1594                           l757:
  1595  000E8E                     ;C:/Users/Maulik/MPLABXProjects/PROB1.X/led_driver.c: 103:     if (i == 6) {
  1596                           		movlw	6
  1597  000E8E  0E06               	xorwf	((c:led_write@i)),c,w
  1598  000E90  1847               	btfss	status,2
  1599  000E92  A4D8               	goto	u501
  1600  000E94  EF4E  F007         	goto	u500
  1601  000E98  EF50  F007         
  1602                           u501:
  1603  000E9C                     	goto	l761
  1604  000E9C  EF75  F007         u500:
  1605  000EA0                     	line	104
  1606                           	
  1607                           l759:
  1608  000EA0                     ;C:/Users/Maulik/MPLABXProjects/PROB1.X/led_driver.c: 104:         LATCbits.LATC1 = led[
                                 6][0];
  1609                           	btfsc	0+((c:_led)+02Ah),c,0
  1610  000EA0  B02B               	bra	u515
  1611  000EA2  D002               	bcf	((c:3979)),c,1	;volatile
  1612  000EA4  928B               	bra	u516
  1613  000EA6  D001               	u515:
  1614  000EA8                     	bsf	((c:3979)),c,1	;volatile
  1615  000EA8  828B               	u516:
  1616  000EAA                     
  1617                           	line	105
  1618                           ;C:/Users/Maulik/MPLABXProjects/PROB1.X/led_driver.c: 105:         LATCbits.LATC2 = led[
                                 6][1];
  1619                           	btfsc	0+((c:_led)+02Bh),c,0
  1620  000EAA  B02C               	bra	u525
  1621  000EAC  D002               	bcf	((c:3979)),c,2	;volatile
  1622  000EAE  948B               	bra	u526
  1623  000EB0  D001               	u525:
  1624  000EB2                     	bsf	((c:3979)),c,2	;volatile
  1625  000EB2  848B               	u526:
  1626  000EB4                     
  1627                           	line	106
  1628                           ;C:/Users/Maulik/MPLABXProjects/PROB1.X/led_driver.c: 106:         LATCbits.LATC3 = led[
                                 6][2];
  1629                           	btfsc	0+((c:_led)+02Ch),c,0
  1630  000EB4  B02D               	bra	u535
  1631  000EB6  D002               	bcf	((c:3979)),c,3	;volatile
  1632  000EB8  968B               	bra	u536
  1633  000EBA  D001               	u535:
  1634  000EBC                     	bsf	((c:3979)),c,3	;volatile
  1635  000EBC  868B               	u536:
  1636  000EBE                     
  1637                           	line	107
  1638                           ;C:/Users/Maulik/MPLABXProjects/PROB1.X/led_driver.c: 107:         LATCbits.LATC4 = led[
                                 6][3];
  1639                           	btfsc	0+((c:_led)+02Dh),c,0
  1640  000EBE  B02E               	bra	u545
  1641  000EC0  D002               	bcf	((c:3979)),c,4	;volatile
  1642  000EC2  988B               	bra	u546
  1643  000EC4  D001               	u545:
  1644  000EC6                     	bsf	((c:3979)),c,4	;volatile
  1645  000EC6  888B               	u546:
  1646  000EC8                     
  1647                           	line	108
  1648                           ;C:/Users/Maulik/MPLABXProjects/PROB1.X/led_driver.c: 108:         LATCbits.LATC5 = led[
                                 6][4];
  1649                           	btfsc	0+((c:_led)+02Eh),c,0
  1650  000EC8  B02F               	bra	u555
  1651  000ECA  D002               	bcf	((c:3979)),c,5	;volatile
  1652  000ECC  9A8B               	bra	u556
  1653  000ECE  D001               	u555:
  1654  000ED0                     	bsf	((c:3979)),c,5	;volatile
  1655  000ED0  8A8B               	u556:
  1656  000ED2                     
  1657                           	line	109
  1658                           ;C:/Users/Maulik/MPLABXProjects/PROB1.X/led_driver.c: 109:         LATCbits.LATC6 = led[
                                 6][5];
  1659                           	btfsc	0+((c:_led)+02Fh),c,0
  1660  000ED2  B030               	bra	u565
  1661  000ED4  D002               	bcf	((c:3979)),c,6	;volatile
  1662  000ED6  9C8B               	bra	u566
  1663  000ED8  D001               	u565:
  1664  000EDA                     	bsf	((c:3979)),c,6	;volatile
  1665  000EDA  8C8B               	u566:
  1666  000EDC                     
  1667                           	line	110
  1668                           ;C:/Users/Maulik/MPLABXProjects/PROB1.X/led_driver.c: 110:         LATCbits.LATC7 = led[
                                 6][6];
  1669                           	btfsc	0+((c:_led)+030h),c,0
  1670  000EDC  B031               	bra	u575
  1671  000EDE  D002               	bcf	((c:3979)),c,7	;volatile
  1672  000EE0  9E8B               	bra	u576
  1673  000EE2  D001               	u575:
  1674  000EE4                     	bsf	((c:3979)),c,7	;volatile
  1675  000EE4  8E8B               	u576:
  1676  000EE6                     
  1677                           	goto	l761
  1678  000EE6  EF75  F007         	line	111
  1679                           ;C:/Users/Maulik/MPLABXProjects/PROB1.X/led_driver.c: 111:     }
  1680                           	
  1681                           l43:
  1682  000EEA                     	line	112
  1683                           	
  1684                           l761:
  1685  000EEA                     ;C:/Users/Maulik/MPLABXProjects/PROB1.X/led_driver.c: 112:     if (i == 7) {
  1686                           		movlw	7
  1687  000EEA  0E07               	xorwf	((c:led_write@i)),c,w
  1688  000EEC  1847               	btfss	status,2
  1689  000EEE  A4D8               	goto	u581
  1690  000EF0  EF7C  F007         	goto	u580
  1691  000EF4  EF7E  F007         
  1692                           u581:
  1693  000EF8                     	goto	l765
  1694  000EF8  EFA3  F007         u580:
  1695  000EFC                     	line	113
  1696                           	
  1697                           l763:
  1698  000EFC                     ;C:/Users/Maulik/MPLABXProjects/PROB1.X/led_driver.c: 113:         LATCbits.LATC1 = led[
                                 7][0];
  1699                           	btfsc	0+((c:_led)+031h),c,0
  1700  000EFC  B032               	bra	u595
  1701  000EFE  D002               	bcf	((c:3979)),c,1	;volatile
  1702  000F00  928B               	bra	u596
  1703  000F02  D001               	u595:
  1704  000F04                     	bsf	((c:3979)),c,1	;volatile
  1705  000F04  828B               	u596:
  1706  000F06                     
  1707                           	line	114
  1708                           ;C:/Users/Maulik/MPLABXProjects/PROB1.X/led_driver.c: 114:         LATCbits.LATC2 = led[
                                 7][1];
  1709                           	btfsc	0+((c:_led)+032h),c,0
  1710  000F06  B033               	bra	u605
  1711  000F08  D002               	bcf	((c:3979)),c,2	;volatile
  1712  000F0A  948B               	bra	u606
  1713  000F0C  D001               	u605:
  1714  000F0E                     	bsf	((c:3979)),c,2	;volatile
  1715  000F0E  848B               	u606:
  1716  000F10                     
  1717                           	line	115
  1718                           ;C:/Users/Maulik/MPLABXProjects/PROB1.X/led_driver.c: 115:         LATCbits.LATC3 = led[
                                 7][2];
  1719                           	btfsc	0+((c:_led)+033h),c,0
  1720  000F10  B034               	bra	u615
  1721  000F12  D002               	bcf	((c:3979)),c,3	;volatile
  1722  000F14  968B               	bra	u616
  1723  000F16  D001               	u615:
  1724  000F18                     	bsf	((c:3979)),c,3	;volatile
  1725  000F18  868B               	u616:
  1726  000F1A                     
  1727                           	line	116
  1728                           ;C:/Users/Maulik/MPLABXProjects/PROB1.X/led_driver.c: 116:         LATCbits.LATC4 = led[
                                 7][3];
  1729                           	btfsc	0+((c:_led)+034h),c,0
  1730  000F1A  B035               	bra	u625
  1731  000F1C  D002               	bcf	((c:3979)),c,4	;volatile
  1732  000F1E  988B               	bra	u626
  1733  000F20  D001               	u625:
  1734  000F22                     	bsf	((c:3979)),c,4	;volatile
  1735  000F22  888B               	u626:
  1736  000F24                     
  1737                           	line	117
  1738                           ;C:/Users/Maulik/MPLABXProjects/PROB1.X/led_driver.c: 117:         LATCbits.LATC5 = led[
                                 7][4];
  1739                           	btfsc	0+((c:_led)+035h),c,0
  1740  000F24  B036               	bra	u635
  1741  000F26  D002               	bcf	((c:3979)),c,5	;volatile
  1742  000F28  9A8B               	bra	u636
  1743  000F2A  D001               	u635:
  1744  000F2C                     	bsf	((c:3979)),c,5	;volatile
  1745  000F2C  8A8B               	u636:
  1746  000F2E                     
  1747                           	line	118
  1748                           ;C:/Users/Maulik/MPLABXProjects/PROB1.X/led_driver.c: 118:         LATCbits.LATC6 = led[
                                 7][5];
  1749                           	btfsc	0+((c:_led)+036h),c,0
  1750  000F2E  B037               	bra	u645
  1751  000F30  D002               	bcf	((c:3979)),c,6	;volatile
  1752  000F32  9C8B               	bra	u646
  1753  000F34  D001               	u645:
  1754  000F36                     	bsf	((c:3979)),c,6	;volatile
  1755  000F36  8C8B               	u646:
  1756  000F38                     
  1757                           	line	119
  1758                           ;C:/Users/Maulik/MPLABXProjects/PROB1.X/led_driver.c: 119:         LATCbits.LATC7 = led[
                                 7][6];
  1759                           	btfsc	0+((c:_led)+037h),c,0
  1760  000F38  B038               	bra	u655
  1761  000F3A  D002               	bcf	((c:3979)),c,7	;volatile
  1762  000F3C  9E8B               	bra	u656
  1763  000F3E  D001               	u655:
  1764  000F40                     	bsf	((c:3979)),c,7	;volatile
  1765  000F40  8E8B               	u656:
  1766  000F42                     
  1767                           	goto	l765
  1768  000F42  EFA3  F007         	line	120
  1769                           ;C:/Users/Maulik/MPLABXProjects/PROB1.X/led_driver.c: 120:     }
  1770                           	
  1771                           l44:
  1772  000F46                     	line	121
  1773                           	
  1774                           l765:
  1775  000F46                     ;C:/Users/Maulik/MPLABXProjects/PROB1.X/led_driver.c: 121:     if (i == 8) {
  1776                           		movlw	8
  1777  000F46  0E08               	xorwf	((c:led_write@i)),c,w
  1778  000F48  1847               	btfss	status,2
  1779  000F4A  A4D8               	goto	u661
  1780  000F4C  EFAA  F007         	goto	u660
  1781  000F50  EFAC  F007         
  1782                           u661:
  1783  000F54                     	goto	l769
  1784  000F54  EFD1  F007         u660:
  1785  000F58                     	line	122
  1786                           	
  1787                           l767:
  1788  000F58                     ;C:/Users/Maulik/MPLABXProjects/PROB1.X/led_driver.c: 122:         LATCbits.LATC1 = led[
                                 8][0];
  1789                           	btfsc	0+((c:_led)+038h),c,0
  1790  000F58  B039               	bra	u675
  1791  000F5A  D002               	bcf	((c:3979)),c,1	;volatile
  1792  000F5C  928B               	bra	u676
  1793  000F5E  D001               	u675:
  1794  000F60                     	bsf	((c:3979)),c,1	;volatile
  1795  000F60  828B               	u676:
  1796  000F62                     
  1797                           	line	123
  1798                           ;C:/Users/Maulik/MPLABXProjects/PROB1.X/led_driver.c: 123:         LATCbits.LATC2 = led[
                                 8][1];
  1799                           	btfsc	0+((c:_led)+039h),c,0
  1800  000F62  B03A               	bra	u685
  1801  000F64  D002               	bcf	((c:3979)),c,2	;volatile
  1802  000F66  948B               	bra	u686
  1803  000F68  D001               	u685:
  1804  000F6A                     	bsf	((c:3979)),c,2	;volatile
  1805  000F6A  848B               	u686:
  1806  000F6C                     
  1807                           	line	124
  1808                           ;C:/Users/Maulik/MPLABXProjects/PROB1.X/led_driver.c: 124:         LATCbits.LATC3 = led[
                                 8][2];
  1809                           	btfsc	0+((c:_led)+03Ah),c,0
  1810  000F6C  B03B               	bra	u695
  1811  000F6E  D002               	bcf	((c:3979)),c,3	;volatile
  1812  000F70  968B               	bra	u696
  1813  000F72  D001               	u695:
  1814  000F74                     	bsf	((c:3979)),c,3	;volatile
  1815  000F74  868B               	u696:
  1816  000F76                     
  1817                           	line	125
  1818                           ;C:/Users/Maulik/MPLABXProjects/PROB1.X/led_driver.c: 125:         LATCbits.LATC4 = led[
                                 8][3];
  1819                           	btfsc	0+((c:_led)+03Bh),c,0
  1820  000F76  B03C               	bra	u705
  1821  000F78  D002               	bcf	((c:3979)),c,4	;volatile
  1822  000F7A  988B               	bra	u706
  1823  000F7C  D001               	u705:
  1824  000F7E                     	bsf	((c:3979)),c,4	;volatile
  1825  000F7E  888B               	u706:
  1826  000F80                     
  1827                           	line	126
  1828                           ;C:/Users/Maulik/MPLABXProjects/PROB1.X/led_driver.c: 126:         LATCbits.LATC5 = led[
                                 8][4];
  1829                           	btfsc	0+((c:_led)+03Ch),c,0
  1830  000F80  B03D               	bra	u715
  1831  000F82  D002               	bcf	((c:3979)),c,5	;volatile
  1832  000F84  9A8B               	bra	u716
  1833  000F86  D001               	u715:
  1834  000F88                     	bsf	((c:3979)),c,5	;volatile
  1835  000F88  8A8B               	u716:
  1836  000F8A                     
  1837                           	line	127
  1838                           ;C:/Users/Maulik/MPLABXProjects/PROB1.X/led_driver.c: 127:         LATCbits.LATC6 = led[
                                 8][5];
  1839                           	btfsc	0+((c:_led)+03Dh),c,0
  1840  000F8A  B03E               	bra	u725
  1841  000F8C  D002               	bcf	((c:3979)),c,6	;volatile
  1842  000F8E  9C8B               	bra	u726
  1843  000F90  D001               	u725:
  1844  000F92                     	bsf	((c:3979)),c,6	;volatile
  1845  000F92  8C8B               	u726:
  1846  000F94                     
  1847                           	line	128
  1848                           ;C:/Users/Maulik/MPLABXProjects/PROB1.X/led_driver.c: 128:         LATCbits.LATC7 = led[
                                 8][6];
  1849                           	btfsc	0+((c:_led)+03Eh),c,0
  1850  000F94  B03F               	bra	u735
  1851  000F96  D002               	bcf	((c:3979)),c,7	;volatile
  1852  000F98  9E8B               	bra	u736
  1853  000F9A  D001               	u735:
  1854  000F9C                     	bsf	((c:3979)),c,7	;volatile
  1855  000F9C  8E8B               	u736:
  1856  000F9E                     
  1857                           	goto	l769
  1858  000F9E  EFD1  F007         	line	129
  1859                           ;C:/Users/Maulik/MPLABXProjects/PROB1.X/led_driver.c: 129:     }
  1860                           	
  1861                           l45:
  1862  000FA2                     	line	130
  1863                           	
  1864                           l769:
  1865  000FA2                     ;C:/Users/Maulik/MPLABXProjects/PROB1.X/led_driver.c: 130:     if (i == 9) {
  1866                           		movlw	9
  1867  000FA2  0E09               	xorwf	((c:led_write@i)),c,w
  1868  000FA4  1847               	btfss	status,2
  1869  000FA6  A4D8               	goto	u741
  1870  000FA8  EFD8  F007         	goto	u740
  1871  000FAC  EFDA  F007         
  1872                           u741:
  1873  000FB0                     	goto	l47
  1874  000FB0  EFFF  F007         u740:
  1875  000FB4                     	line	131
  1876                           	
  1877                           l771:
  1878  000FB4                     ;C:/Users/Maulik/MPLABXProjects/PROB1.X/led_driver.c: 131:         LATCbits.LATC1 = led[
                                 9][0];
  1879                           	btfsc	0+((c:_led)+03Fh),c,0
  1880  000FB4  B040               	bra	u755
  1881  000FB6  D002               	bcf	((c:3979)),c,1	;volatile
  1882  000FB8  928B               	bra	u756
  1883  000FBA  D001               	u755:
  1884  000FBC                     	bsf	((c:3979)),c,1	;volatile
  1885  000FBC  828B               	u756:
  1886  000FBE                     
  1887                           	line	132
  1888                           ;C:/Users/Maulik/MPLABXProjects/PROB1.X/led_driver.c: 132:         LATCbits.LATC2 = led[
                                 9][1];
  1889                           	btfsc	0+((c:_led)+040h),c,0
  1890  000FBE  B041               	bra	u765
  1891  000FC0  D002               	bcf	((c:3979)),c,2	;volatile
  1892  000FC2  948B               	bra	u766
  1893  000FC4  D001               	u765:
  1894  000FC6                     	bsf	((c:3979)),c,2	;volatile
  1895  000FC6  848B               	u766:
  1896  000FC8                     
  1897                           	line	133
  1898                           ;C:/Users/Maulik/MPLABXProjects/PROB1.X/led_driver.c: 133:         LATCbits.LATC3 = led[
                                 9][2];
  1899                           	btfsc	0+((c:_led)+041h),c,0
  1900  000FC8  B042               	bra	u775
  1901  000FCA  D002               	bcf	((c:3979)),c,3	;volatile
  1902  000FCC  968B               	bra	u776
  1903  000FCE  D001               	u775:
  1904  000FD0                     	bsf	((c:3979)),c,3	;volatile
  1905  000FD0  868B               	u776:
  1906  000FD2                     
  1907                           	line	134
  1908                           ;C:/Users/Maulik/MPLABXProjects/PROB1.X/led_driver.c: 134:         LATCbits.LATC4 = led[
                                 9][3];
  1909                           	btfsc	0+((c:_led)+042h),c,0
  1910  000FD2  B043               	bra	u785
  1911  000FD4  D002               	bcf	((c:3979)),c,4	;volatile
  1912  000FD6  988B               	bra	u786
  1913  000FD8  D001               	u785:
  1914  000FDA                     	bsf	((c:3979)),c,4	;volatile
  1915  000FDA  888B               	u786:
  1916  000FDC                     
  1917                           	line	135
  1918                           ;C:/Users/Maulik/MPLABXProjects/PROB1.X/led_driver.c: 135:         LATCbits.LATC5 = led[
                                 9][4];
  1919                           	btfsc	0+((c:_led)+043h),c,0
  1920  000FDC  B044               	bra	u795
  1921  000FDE  D002               	bcf	((c:3979)),c,5	;volatile
  1922  000FE0  9A8B               	bra	u796
  1923  000FE2  D001               	u795:
  1924  000FE4                     	bsf	((c:3979)),c,5	;volatile
  1925  000FE4  8A8B               	u796:
  1926  000FE6                     
  1927                           	line	136
  1928                           ;C:/Users/Maulik/MPLABXProjects/PROB1.X/led_driver.c: 136:         LATCbits.LATC6 = led[
                                 9][5];
  1929                           	btfsc	0+((c:_led)+044h),c,0
  1930  000FE6  B045               	bra	u805
  1931  000FE8  D002               	bcf	((c:3979)),c,6	;volatile
  1932  000FEA  9C8B               	bra	u806
  1933  000FEC  D001               	u805:
  1934  000FEE                     	bsf	((c:3979)),c,6	;volatile
  1935  000FEE  8C8B               	u806:
  1936  000FF0                     
  1937                           	line	137
  1938                           ;C:/Users/Maulik/MPLABXProjects/PROB1.X/led_driver.c: 137:         LATCbits.LATC7 = led[
                                 9][6];
  1939                           	btfsc	0+((c:_led)+045h),c,0
  1940  000FF0  B046               	bra	u815
  1941  000FF2  D002               	bcf	((c:3979)),c,7	;volatile
  1942  000FF4  9E8B               	bra	u816
  1943  000FF6  D001               	u815:
  1944  000FF8                     	bsf	((c:3979)),c,7	;volatile
  1945  000FF8  8E8B               	u816:
  1946  000FFA                     
  1947                           	goto	l47
  1948  000FFA  EFFF  F007         	line	138
  1949                           ;C:/Users/Maulik/MPLABXProjects/PROB1.X/led_driver.c: 138:     }
  1950                           	
  1951                           l46:
  1952  000FFE                     	line	145
  1953                           	
  1954                           l47:
  1955  000FFE                     	return	;funcret
  1956  000FFE  0012               	opt stack 0
  1957                           GLOBAL	__end_of_led_write
  1958                           	__end_of_led_write:
  1959  001000                     	signat	_led_write,4217
  1960                           	global	_led_init
  1961                           
  1962 ;; *************** function _led_init *****************
  1963 ;; Defined at:
  1964 ;;		line 19 in file "C:/Users/Maulik/MPLABXProjects/PROB1.X/led_driver.c"
  1965 ;; Parameters:    Size  Location     Type
  1966 ;;		None
  1967 ;; Auto vars:     Size  Location     Type
  1968 ;;		None
  1969 ;; Return value:  Size  Location     Type
  1970 ;;                  1    wreg      void 
  1971 ;; Registers used:
  1972 ;;		None
  1973 ;; Tracked objects:
  1974 ;;		On entry : 0/0
  1975 ;;		On exit  : 0/0
  1976 ;;		Unchanged: 0/0
  1977 ;; Data sizes:     COMRAM   BANK0   BANK1
  1978 ;;      Params:         0       0       0
  1979 ;;      Locals:         0       0       0
  1980 ;;      Temps:          0       0       0
  1981 ;;      Totals:         0       0       0
  1982 ;;Total ram usage:        0 bytes
  1983 ;; Hardware stack levels used:    1
  1984 ;; This function calls:
  1985 ;;		Nothing
  1986 ;; This function is called by:
  1987 ;;		_main
  1988 ;; This function uses a non-reentrant model
  1989 ;;
  1990                           psect	text2,class=CODE,space=0,reloc=2,group=0
  1991                           	line	19
  1992                           global __ptext2
  1993                           __ptext2:
  1994  000B90                     psect	text2
  1995                           	file	"C:/Users/Maulik/MPLABXProjects/PROB1.X/led_driver.c"
  1996                           	line	19
  1997                           	global	__size_of_led_init
  1998                           	__size_of_led_init	equ	__end_of_led_init-_led_init
  1999  0000                     	
  2000                           _led_init:
  2001  000B90                     ;incstack = 0
  2002                           	opt	stack 30
  2003                           	line	20
  2004                           	
  2005                           l729:
  2006  000B90                     ;C:/Users/Maulik/MPLABXProjects/PROB1.X/led_driver.c: 20:     TRISCbits.TRISC0 = 0;
  2007                           	bcf	((c:3988)),c,0	;volatile
  2008  000B90  9094               	line	21
  2009                           ;C:/Users/Maulik/MPLABXProjects/PROB1.X/led_driver.c: 21:     TRISCbits.TRISC1 = 0;
  2010                           	bcf	((c:3988)),c,1	;volatile
  2011  000B92  9294               	line	22
  2012                           ;C:/Users/Maulik/MPLABXProjects/PROB1.X/led_driver.c: 22:     TRISCbits.TRISC2 = 0;
  2013                           	bcf	((c:3988)),c,2	;volatile
  2014  000B94  9494               	line	23
  2015                           ;C:/Users/Maulik/MPLABXProjects/PROB1.X/led_driver.c: 23:     TRISCbits.TRISC3 = 0;
  2016                           	bcf	((c:3988)),c,3	;volatile
  2017  000B96  9694               	line	24
  2018                           ;C:/Users/Maulik/MPLABXProjects/PROB1.X/led_driver.c: 24:     TRISCbits.TRISC4 = 0;
  2019                           	bcf	((c:3988)),c,4	;volatile
  2020  000B98  9894               	line	25
  2021                           ;C:/Users/Maulik/MPLABXProjects/PROB1.X/led_driver.c: 25:     TRISCbits.TRISC5 = 0;
  2022                           	bcf	((c:3988)),c,5	;volatile
  2023  000B9A  9A94               	line	26
  2024                           ;C:/Users/Maulik/MPLABXProjects/PROB1.X/led_driver.c: 26:     TRISCbits.TRISC6 = 0;
  2025                           	bcf	((c:3988)),c,6	;volatile
  2026  000B9C  9C94               	line	27
  2027                           ;C:/Users/Maulik/MPLABXProjects/PROB1.X/led_driver.c: 27:     TRISCbits.TRISC7 = 0;
  2028                           	bcf	((c:3988)),c,7	;volatile
  2029  000B9E  9E94               	line	32
  2030                           	
  2031                           l31:
  2032  000BA0                     	return	;funcret
  2033  000BA0  0012               	opt stack 0
  2034                           GLOBAL	__end_of_led_init
  2035                           	__end_of_led_init:
  2036  000BA2                     	signat	_led_init,89
  2037                           	global	_led_clear
  2038                           
  2039 ;; *************** function _led_clear *****************
  2040 ;; Defined at:
  2041 ;;		line 34 in file "C:/Users/Maulik/MPLABXProjects/PROB1.X/led_driver.c"
  2042 ;; Parameters:    Size  Location     Type
  2043 ;;		None
  2044 ;; Auto vars:     Size  Location     Type
  2045 ;;		None
  2046 ;; Return value:  Size  Location     Type
  2047 ;;                  1    wreg      void 
  2048 ;; Registers used:
  2049 ;;		None
  2050 ;; Tracked objects:
  2051 ;;		On entry : 0/0
  2052 ;;		On exit  : 0/0
  2053 ;;		Unchanged: 0/0
  2054 ;; Data sizes:     COMRAM   BANK0   BANK1
  2055 ;;      Params:         0       0       0
  2056 ;;      Locals:         0       0       0
  2057 ;;      Temps:          0       0       0
  2058 ;;      Totals:         0       0       0
  2059 ;;Total ram usage:        0 bytes
  2060 ;; Hardware stack levels used:    1
  2061 ;; This function calls:
  2062 ;;		Nothing
  2063 ;; This function is called by:
  2064 ;;		_main
  2065 ;; This function uses a non-reentrant model
  2066 ;;
  2067                           psect	text3,class=CODE,space=0,reloc=2,group=0
  2068                           	line	34
  2069                           global __ptext3
  2070                           __ptext3:
  2071  000B80                     psect	text3
  2072                           	file	"C:/Users/Maulik/MPLABXProjects/PROB1.X/led_driver.c"
  2073                           	line	34
  2074                           	global	__size_of_led_clear
  2075                           	__size_of_led_clear	equ	__end_of_led_clear-_led_clear
  2076  0000                     	
  2077                           _led_clear:
  2078  000B80                     ;incstack = 0
  2079                           	opt	stack 30
  2080                           	line	35
  2081                           	
  2082                           l731:
  2083  000B80                     ;C:/Users/Maulik/MPLABXProjects/PROB1.X/led_driver.c: 35:     LATCbits.LATC1 = 0;
  2084                           	bcf	((c:3979)),c,1	;volatile
  2085  000B80  928B               	line	36
  2086                           ;C:/Users/Maulik/MPLABXProjects/PROB1.X/led_driver.c: 36:     LATCbits.LATC2 = 0;
  2087                           	bcf	((c:3979)),c,2	;volatile
  2088  000B82  948B               	line	37
  2089                           ;C:/Users/Maulik/MPLABXProjects/PROB1.X/led_driver.c: 37:     LATCbits.LATC3 = 0;
  2090                           	bcf	((c:3979)),c,3	;volatile
  2091  000B84  968B               	line	38
  2092                           ;C:/Users/Maulik/MPLABXProjects/PROB1.X/led_driver.c: 38:     LATCbits.LATC4 = 0;
  2093                           	bcf	((c:3979)),c,4	;volatile
  2094  000B86  988B               	line	39
  2095                           ;C:/Users/Maulik/MPLABXProjects/PROB1.X/led_driver.c: 39:     LATCbits.LATC5 = 0;
  2096                           	bcf	((c:3979)),c,5	;volatile
  2097  000B88  9A8B               	line	40
  2098                           ;C:/Users/Maulik/MPLABXProjects/PROB1.X/led_driver.c: 40:     LATCbits.LATC6 = 0;
  2099                           	bcf	((c:3979)),c,6	;volatile
  2100  000B8A  9C8B               	line	41
  2101                           ;C:/Users/Maulik/MPLABXProjects/PROB1.X/led_driver.c: 41:     LATCbits.LATC7 = 0;
  2102                           	bcf	((c:3979)),c,7	;volatile
  2103  000B8C  9E8B               	line	44
  2104                           	
  2105                           l34:
  2106  000B8E                     	return	;funcret
  2107  000B8E  0012               	opt stack 0
  2108                           GLOBAL	__end_of_led_clear
  2109                           	__end_of_led_clear:
  2110  000B90                     	signat	_led_clear,89
  2111                           	global	_delay
  2112                           
  2113 ;; *************** function _delay *****************
  2114 ;; Defined at:
  2115 ;;		line 17 in file "newmain.c"
  2116 ;; Parameters:    Size  Location     Type
  2117 ;;  c               1    wreg     unsigned char 
  2118 ;; Auto vars:     Size  Location     Type
  2119 ;;  c               1    0[COMRAM] unsigned char 
  2120 ;;  i               1    1[COMRAM] unsigned char 
  2121 ;; Return value:  Size  Location     Type
  2122 ;;                  1    wreg      void 
  2123 ;; Registers used:
  2124 ;;		wreg, status,2, status,0
  2125 ;; Tracked objects:
  2126 ;;		On entry : 0/0
  2127 ;;		On exit  : 0/0
  2128 ;;		Unchanged: 0/0
  2129 ;; Data sizes:     COMRAM   BANK0   BANK1
  2130 ;;      Params:         0       0       0
  2131 ;;      Locals:         2       0       0
  2132 ;;      Temps:          0       0       0
  2133 ;;      Totals:         2       0       0
  2134 ;;Total ram usage:        2 bytes
  2135 ;; Hardware stack levels used:    1
  2136 ;; This function calls:
  2137 ;;		Nothing
  2138 ;; This function is called by:
  2139 ;;		_main
  2140 ;; This function uses a non-reentrant model
  2141 ;;
  2142                           psect	text4,class=CODE,space=0,reloc=2,group=0
  2143                           	file	"newmain.c"
  2144                           	line	17
  2145                           global __ptext4
  2146                           __ptext4:
  2147  000BC8                     psect	text4
  2148                           	file	"newmain.c"
  2149                           	line	17
  2150                           	global	__size_of_delay
  2151                           	__size_of_delay	equ	__end_of_delay-_delay
  2152  0000                     	
  2153                           _delay:
  2154  000BC8                     ;incstack = 0
  2155                           	opt	stack 30
  2156                           ;delay@c stored from wreg
  2157                           	movwf	((c:delay@c)),c
  2158  000BC8  6E47               	line	18
  2159                           	
  2160                           l723:
  2161  000BCA                     ;newmain.c: 18:     for (unsigned char i = 0; i < c; i++);
  2162                           	movlw	low(0)
  2163  000BCA  0E00               	movwf	((c:delay@i)),c
  2164  000BCC  6E48               	goto	l727
  2165  000BCE  EFEC  F005         	
  2166                           l12:
  2167  000BD2                     	
  2168                           l725:
  2169  000BD2                     	incf	((c:delay@i)),c
  2170  000BD2  2A48               	goto	l727
  2171  000BD4  EFEC  F005         	
  2172                           l11:
  2173  000BD8                     	
  2174                           l727:
  2175  000BD8                     		movf	((c:delay@c)),c,w
  2176  000BD8  5047               	subwf	((c:delay@i)),c,w
  2177  000BDA  5C48               	btfss	status,0
  2178  000BDC  A0D8               	goto	u11
  2179  000BDE  EFF3  F005         	goto	u10
  2180  000BE2  EFF5  F005         
  2181                           u11:
  2182  000BE6                     	goto	l725
  2183  000BE6  EFE9  F005         u10:
  2184  000BEA                     	goto	l14
  2185  000BEA  EFF7  F005         	
  2186                           l13:
  2187  000BEE                     	line	19
  2188                           	
  2189                           l14:
  2190  000BEE                     	return	;funcret
  2191  000BEE  0012               	opt stack 0
  2192                           GLOBAL	__end_of_delay
  2193                           	__end_of_delay:
  2194  000BF0                     	signat	_delay,4217
  2195                           	GLOBAL	__activetblptr
  2196                           __activetblptr	EQU	0
  2197  0000                     	psect	intsave_regs,class=BIGRAM,space=1,noexec
  2198                           	PSECT	rparam,class=COMRAM,space=1,noexec
  2199                           	GLOBAL	__Lrparam
  2200                           	FNCONF	rparam,??,?
  2201                           	GLOBAL	___rparam_used
  2202                           	___rparam_used EQU 1
  2203  0000                     	GLOBAL	___param_bank
  2204                           	___param_bank EQU 0
  2205  0000                     GLOBAL	__Lparam, __Hparam
  2206                           GLOBAL	__Lrparam, __Hrparam
  2207                           __Lparam	EQU	__Lrparam
  2208  0000                     __Hparam	EQU	__Hrparam
  2209  0000                     	end


Data Sizes:
    Strings     0
    Constant    0
    Data        70
    BSS         0
    Persistent  0
    Stack       0

Auto Spaces:
    Space          Size  Autos    Used
    COMRAM          127      2      72
    BANK0           128      0       0
    BANK1           256      0       0

Pointer List with Targets:

    None.

Critical Paths under _main in COMRAM

    _main->_delay

Critical Paths under _main in BANK0

    None.

Critical Paths under _main in BANK1

    None.

Call Graph Tables:

 ---------------------------------------------------------------------------------
 (Depth) Function   	        Calls       Base Space   Used Autos Params    Refs
 ---------------------------------------------------------------------------------
 (0) _main                                                 1     1      0     180
                              _delay
                          _led_clear
                           _led_init
                          _led_write
 ---------------------------------------------------------------------------------
 (1) _led_write                                            1     1      0     150
                                              0 COMRAM     1     1      0
 ---------------------------------------------------------------------------------
 (1) _led_init                                             0     0      0       0
 ---------------------------------------------------------------------------------
 (1) _led_clear                                            0     0      0       0
 ---------------------------------------------------------------------------------
 (1) _delay                                                2     2      0      30
                                              0 COMRAM     2     2      0
 ---------------------------------------------------------------------------------
 Estimated maximum stack depth 1
 ---------------------------------------------------------------------------------

 Call Graph Graphs:

 _main (ROOT)
   _delay
   _led_clear
   _led_init
   _led_write

 Address spaces:
Name               Size   Autos  Total    Cost      Usage
BIGRAM             1FF      0       0       8        0.0%
EEDATA             100      0       0       0        0.0%
BITBANK1           100      0       0       5        0.0%
BANK1              100      0       0       6        0.0%
BITBANK0            80      0       0       3        0.0%
BANK0               80      0       0       4        0.0%
BITCOMRAM           7F      0       0       0        0.0%
COMRAM              7F      2      48       1       56.7%
BITSFR               0      0       0     200        0.0%
SFR                  0      0       0     200        0.0%
STACK                0      0       0       2        0.0%
NULL                 0      0       0       0        0.0%
ABS                  0      0      48       7        0.0%
DATA                 0      0      48       9        0.0%
CODE                 0      0       0       0        0.0%


Microchip Technology PIC18 Macro Assembler V2.00 build -1524193055 
Symbol Table                                                                                   Mon Sep 10 20:15:08 2018

                     l11 0BD8                       l12 0BD2                       l20 0C1A  
                     l13 0BEE                       l21 0C1E                       l14 0BEE  
                     l22 0C1E                       l31 0BA0                       l40 0DD6  
                     l41 0E32                       l34 0B8E                       l42 0E8E  
                     l43 0EEA                       l19 0C00                       l44 0F46  
                     l45 0FA2                       l37 0CC4                       l46 0FFE  
                     l38 0D1E                       l47 0FFE                       l39 0D7A  
                     u10 0BEA                       u11 0BE6                       u20 0C7A  
                     u21 0C76                       u35 0C82                       u36 0C84  
                     u45 0C8C                       u46 0C8E                       u55 0C96  
                     u56 0C98                       u65 0CA0                       u66 0CA2  
                     u75 0CAA                       u76 0CAC                       u85 0CB4  
                     u86 0CB6                       u95 0CBE                       u96 0CC0  
           __CFG_CP0$OFF 000000             __CFG_CP1$OFF 000000              __CFG_LVP$ON 000000  
                    l723 0BCA                      l731 0B80                      l725 0BD2  
                    l741 0D1E                      l733 0C6A                      l727 0BD8  
                    l751 0DE8                      l743 0D30                      l735 0C7A  
                    l729 0B90                      l761 0EEA                      l753 0E32  
                    l745 0D7A                      l737 0CC4                      l771 0FB4  
                    l763 0EFC                      l755 0E44                      l747 0D8C  
                    l739 0CD4                      l765 0F46                      l757 0E8E  
                    l749 0DD6                      l781 0C06                      l773 0BF0  
                    l767 0F58                      l759 0EA0                      l783 0C0C  
                    l775 0BF4                      l769 0FA2                      l785 0C10  
                    l777 0BF8                      l779 0C00             __CFG_CPB$OFF 000000  
                    u100 0CD4                      u101 0CD0                      u115 0CDC  
                    u116 0CDE                      u205 0D42                      u125 0CE6  
                    u206 0D44                      u126 0CE8                      u215 0D4C  
                    u135 0CF0                      u216 0D4E                      u136 0CF2  
                    u305 0DB2                      u225 0D56                      u145 0CFA  
                    u306 0DB4                      u226 0D58                      u146 0CFC  
                    u315 0DBC                      u235 0D60                      u155 0D04  
                    u500 0EA0                      u420 0E44                      u340 0DE8  
                    u316 0DBE                      u260 0D8C                      u236 0D62  
                    u180 0D30                      u156 0D06                      u501 0E9C  
                    u421 0E40                      u405 0E22                      u341 0DE4  
                    u325 0DC6                      u261 0D88                      u245 0D6A  
                    u181 0D2C                      u165 0D0E                      u406 0E24  
                    u326 0DC8                      u246 0D6C                      u166 0D10  
                    u415 0E2C                      u335 0DD0                      u255 0D74  
                    u175 0D18                      u416 0E2E                      u336 0DD2  
                    u256 0D76                      u176 0D1A             __CFG_CPD$OFF 000000  
                    u515 0EA8                      u435 0E4C                      u355 0DF0  
                    u275 0D94                      u195 0D38                      u516 0EAA  
                    u436 0E4E                      u356 0DF2                      u276 0D96  
                    u196 0D3A                      u605 0F0E                      u525 0EB2  
                    u445 0E56                      u365 0DFA                      u285 0D9E  
                    u606 0F10                      u526 0EB4                      u446 0E58  
                    u366 0DFC                      u286 0DA0                      u615 0F18  
                    u535 0EBC                      u455 0E60                      u375 0E04  
                    u295 0DA8                      u616 0F1A                      u536 0EBE  
                    u456 0E62                      u376 0E06                      u296 0DAA  
                    u705 0F7E                      u625 0F22                      u545 0EC6  
                    u465 0E6A                      u385 0E0E                      u706 0F80  
                    u626 0F24                      u546 0EC8                      u466 0E6C  
                    u386 0E10                      u715 0F88                      u635 0F2C  
                    u555 0ED0                      u475 0E74                      u395 0E18  
                    u740 0FB4                      u716 0F8A                      u660 0F58  
                    u636 0F2E                      u580 0EFC                      u556 0ED2  
                    u476 0E76                      u396 0E1A                      u805 0FEE  
                    u741 0FB0                      u725 0F92                      u661 0F54  
                    u645 0F36                      u581 0EF8                      u565 0EDA  
                    u485 0E7E                      u806 0FF0                      u726 0F94  
                    u646 0F38                      u566 0EDC                      u486 0E80  
                    u815 0FF8                      u735 0F9C                      u655 0F40  
                    u575 0EE4                      u495 0E88                      u816 0FFA  
                    u736 0F9E                      u656 0F42                      u576 0EE6  
                    u496 0E8A                      u755 0FBC                      u675 0F60  
                    u595 0F04                      u756 0FBE                      u676 0F62  
                    u596 0F06                      u765 0FC6                      u685 0F6A  
                    u766 0FC8                      u686 0F6C                      u775 0FD0  
                    u695 0F74                      u776 0FD2                      u696 0F76  
                    u785 0FDA                      u786 0FDC                      u795 0FE4  
                    u796 0FE6             __CFG_BOR$OFF 000000                      _led 0001  
           __CFG_BORV$20 000000             __CFG_IESO$ON 000000             __CFG_WDT$OFF 000000  
           __CFG_STVR$ON 000000                     _main 0BF0                     fsr1l 000FE1  
          __CFG_PBAD$ANA 000000                     start 0000            __CFG_FSCM$OFF 000000  
           ___param_bank 000000           __CFG_CCP2MX$ON 000000                    ?_main 0047  
                  _TRISC 000F94            __CFG_PWRT$OFF 000000            __CFG_WRT0$OFF 000000  
          __CFG_WRT1$OFF 000000           __CFG_EBTR0$OFF 000000           __CFG_EBTR1$OFF 000000  
          __CFG_WRTB$OFF 000000            __CFG_WRTC$OFF 000000            __CFG_WRTD$OFF 000000  
         __CFG_EBTRB$OFF 000000                    _delay 0BC8                    tablat 000FF5  
                  status 000FD8           __CFG_MCLRE$OFF 000000          __initialization 0BA2  
           __end_of_main 0C22                   ??_main 0049            __activetblptr 000000  
                 ?_delay 0047         __end_of_led_init 0BA2                   delay@c 0047  
                 delay@i 0048             __pdataCOMRAM 0001                   tblptrh 000FF7  
                 tblptrl 000FF6                   tblptru 000FF8               __accesstop 0080  
__end_of__initialization 0BC2            ___rparam_used 000001           __pcstackCOMRAM 0047  
          __end_of_delay 0BF0          __CFG_OSC$INTIO2 000000       __size_of_led_clear 0010  
                ??_delay 0047       __size_of_led_write 0398                ?_led_init 0047  
                __Hparam 0000                  __Lparam 0000        __end_of_led_clear 0B90  
      __end_of_led_write 1000                  __pcinit 0BA2                  __ramtop 0200  
                __ptext0 0BF0                  __ptext1 0C68                  __ptext2 0B90  
                __ptext3 0B80                  __ptext4 0BC8               ??_led_init 0047  
   end_of_initialization 0BC2                  postdec1 000FE5                  postinc0 000FEE  
              _TRISCbits 000F94            __pidataCOMRAM 0C22               led_write@i 0047  
    start_initialization 0BA2        __size_of_led_init 0012                _led_clear 0B80  
              _led_write 0C68           __size_of_delay 0028                 _LATCbits 000F8B  
       __CFG_WDTPS$32768 000000               ?_led_clear 0047               ?_led_write 0047  
              copy_data0 0BB6                 __Hrparam 0000                 __Lrparam 0000  
               _led_init 0B90            __size_of_main 0032              ??_led_clear 0047  
            ??_led_write 0047  
